ccopy_reg
_reconstructor
p0
(cnltk.classify.naivebayes
NaiveBayesClassifier
p1
c__builtin__
object
p2
Ntp3
Rp4
(dp5
S'_labels'
p6
(lp7
VWind Speed StDev
p8
aVWind Speed
p9
aVWind Direction
p10
aVTI
p11
asS'_feature_probdist'
p12
(dp13
(g8
S'Has WD'
p14
tp15
g0
(cnltk.probability
ELEProbDist
p16
g2
Ntp17
Rp18
(dp19
S'_gamma'
p20
F0.5
sS'_N'
p21
I14521
sS'_freqdist'
p22
g0
(cnltk.probability
FreqDist
p23
c__builtin__
dict
p24
(dp25
I00
I14521
stp26
Rp27
(dp28
g21
I14521
sS'_max_cache'
p29
NsS'_item_cache'
p30
(lp31
(I00
I14521
tp32
asS'_Nr_cache'
p33
NsbsS'_bins'
p34
I3
sS'_divisor'
p35
F14522.5
sbs(g9
S'Has WindD'
p36
tp37
g0
(g16
g2
Ntp38
Rp39
(dp40
g20
F0.5
sg21
I12018
sg22
g0
(g23
g24
(dp41
I00
I12018
stp42
Rp43
(dp44
g21
I12018
sg29
Nsg30
(lp45
(I00
I12018
tp46
asg33
Nsbsg34
I3
sg35
F12019.5
sbs(g8
S'Has dir'
p47
tp48
g0
(g16
g2
Ntp49
Rp50
(dp51
g20
F0.5
sg21
I14521
sg22
g0
(g23
g24
(dp52
I00
I14521
stp53
Rp54
(dp55
g21
I14521
sg29
Nsg30
(lp56
(I00
I14521
tp57
asg33
Nsbsg34
I3
sg35
F14522.5
sbs(g10
S'Has dev'
p58
tp59
g0
(g16
g2
Ntp60
Rp61
(dp62
g20
F0.5
sg21
I5184
sg22
g0
(g23
g24
(dp63
I00
I5184
stp64
Rp65
(dp66
g21
I5184
sg29
Nsg30
(lp67
(I00
I5184
tp68
asg33
Nsbsg34
I3
sg35
F5185.5
sbs(g10
S'Has turb'
p69
tp70
g0
(g16
g2
Ntp71
Rp72
(dp73
g20
F0.5
sg21
I5184
sg22
g0
(g23
g24
(dp74
I00
I5184
stp75
Rp76
(dp77
g21
I5184
sg29
Nsg30
(lp78
(I00
I5184
tp79
asg33
Nsbsg34
I3
sg35
F5185.5
sbs(g8
g58
tp80
g0
(g16
g2
Ntp81
Rp82
(dp83
g20
F0.5
sg21
I14521
sg22
g0
(g23
g24
(dp84
I00
I2428
sI01
I12093
stp85
Rp86
(dp87
g21
I14521
sg29
Nsg30
(lp88
(I01
I12093
tp89
a(I00
I2428
tp90
asg33
Nsbsg34
I3
sg35
F14522.5
sbs(g11
g47
tp91
g0
(g16
g2
Ntp92
Rp93
(dp94
g20
F0.5
sg21
I2297
sg22
g0
(g23
g24
(dp95
I00
I2297
stp96
Rp97
(dp98
g21
I2297
sg29
Nsg30
(lp99
(I00
I2297
tp100
asg33
Nsbsg34
I3
sg35
F2298.5
sbs(g11
g14
tp101
g0
(g16
g2
Ntp102
Rp103
(dp104
g20
F0.5
sg21
I2297
sg22
g0
(g23
g24
(dp105
I00
I2297
stp106
Rp107
(dp108
g21
I2297
sg29
Nsg30
(lp109
(I00
I2297
tp110
asg33
Nsbsg34
I3
sg35
F2298.5
sbs(g8
g36
tp111
g0
(g16
g2
Ntp112
Rp113
(dp114
g20
F0.5
sg21
I14521
sg22
g0
(g23
g24
(dp115
I00
I14521
stp116
Rp117
(dp118
g21
I14521
sg29
Nsg30
(lp119
(I00
I14521
tp120
asg33
Nsbsg34
I3
sg35
F14522.5
sbs(g10
g14
tp121
g0
(g16
g2
Ntp122
Rp123
(dp124
g20
F0.5
sg21
I5184
sg22
g0
(g23
g24
(dp125
I00
I3456
sI01
I1728
stp126
Rp127
(dp128
g21
I5184
sg29
Nsg30
(lp129
(I00
I3456
tp130
a(I01
I1728
tp131
asg33
Nsbsg34
I3
sg35
F5185.5
sbs(g10
S'Has spd'
p132
tp133
g0
(g16
g2
Ntp134
Rp135
(dp136
g20
F0.5
sg21
I5184
sg22
g0
(g23
g24
(dp137
I00
I5184
stp138
Rp139
(dp140
g21
I5184
sg29
Nsg30
(lp141
(I00
I5184
tp142
asg33
Nsbsg34
I3
sg35
F5185.5
sbs(g11
g132
tp143
g0
(g16
g2
Ntp144
Rp145
(dp146
g20
F0.5
sg21
I2297
sg22
g0
(g23
g24
(dp147
I00
I2297
stp148
Rp149
(dp150
g21
I2297
sg29
Nsg30
(lp151
(I00
I2297
tp152
asg33
Nsbsg34
I3
sg35
F2298.5
sbs(g11
g36
tp153
g0
(g16
g2
Ntp154
Rp155
(dp156
g20
F0.5
sg21
I2297
sg22
g0
(g23
g24
(dp157
I00
I2297
stp158
Rp159
(dp160
g21
I2297
sg29
Nsg30
(lp161
(I00
I2297
tp162
asg33
Nsbsg34
I3
sg35
F2298.5
sbs(g8
S'Has std'
p163
tp164
g0
(g16
g2
Ntp165
Rp166
(dp167
g20
F0.5
sg21
I14521
sg22
g0
(g23
g24
(dp168
I00
I7249
sI01
I7272
stp169
Rp170
(dp171
g21
I14521
sg29
Nsg30
(lp172
(I01
I7272
tp173
a(I00
I7249
tp174
asg33
Nsbsg34
I3
sg35
F14522.5
sbs(g10
g163
tp175
g0
(g16
g2
Ntp176
Rp177
(dp178
g20
F0.5
sg21
I5184
sg22
g0
(g23
g24
(dp179
I00
I5184
stp180
Rp181
(dp182
g21
I5184
sg29
Nsg30
(lp183
(I00
I5184
tp184
asg33
Nsbsg34
I3
sg35
F5185.5
sbs(g9
g14
tp185
g0
(g16
g2
Ntp186
Rp187
(dp188
g20
F0.5
sg21
I12018
sg22
g0
(g23
g24
(dp189
I00
I12018
stp190
Rp191
(dp192
g21
I12018
sg29
Nsg30
(lp193
(I00
I12018
tp194
asg33
Nsbsg34
I3
sg35
F12019.5
sbs(g8
g132
tp195
g0
(g16
g2
Ntp196
Rp197
(dp198
g20
F0.5
sg21
I14521
sg22
g0
(g23
g24
(dp199
I00
I10381
sI01
I4140
stp200
Rp201
(dp202
g21
I14521
sg29
Nsg30
(lp203
(I00
I10381
tp204
a(I01
I4140
tp205
asg33
Nsbsg34
I3
sg35
F14522.5
sbs(g9
g163
tp206
g0
(g16
g2
Ntp207
Rp208
(dp209
g20
F0.5
sg21
I12018
sg22
g0
(g23
g24
(dp210
I00
I12018
stp211
Rp212
(dp213
g21
I12018
sg29
Nsg30
(lp214
(I00
I12018
tp215
asg33
Nsbsg34
I3
sg35
F12019.5
sbs(g9
g69
tp216
g0
(g16
g2
Ntp217
Rp218
(dp219
g20
F0.5
sg21
I12018
sg22
g0
(g23
g24
(dp220
I00
I12018
stp221
Rp222
(dp223
g21
I12018
sg29
Nsg30
(lp224
(I00
I12018
tp225
asg33
Nsbsg34
I3
sg35
F12019.5
sbs(g10
g36
tp226
g0
(g16
g2
Ntp227
Rp228
(dp229
g20
F0.5
sg21
I5184
sg22
g0
(g23
g24
(dp230
I00
I3455
sI01
I1729
stp231
Rp232
(dp233
g21
I5184
sg29
Nsg30
(lp234
(I00
I3455
tp235
a(I01
I1729
tp236
asg33
Nsbsg34
I3
sg35
F5185.5
sbs(g9
g132
tp237
g0
(g16
g2
Ntp238
Rp239
(dp240
g20
F0.5
sg21
I12018
sg22
g0
(g23
g24
(dp241
I00
I8592
sI01
I3426
stp242
Rp243
(dp244
g21
I12018
sg29
Nsg30
(lp245
(I00
I8592
tp246
a(I01
I3426
tp247
asg33
Nsbsg34
I3
sg35
F12019.5
sbs(g11
g163
tp248
g0
(g16
g2
Ntp249
Rp250
(dp251
g20
F0.5
sg21
I2297
sg22
g0
(g23
g24
(dp252
I00
I2297
stp253
Rp254
(dp255
g21
I2297
sg29
Nsg30
(lp256
(I00
I2297
tp257
asg33
Nsbsg34
I3
sg35
F2298.5
sbs(g8
g69
tp258
g0
(g16
g2
Ntp259
Rp260
(dp261
g20
F0.5
sg21
I14521
sg22
g0
(g23
g24
(dp262
I00
I14521
stp263
Rp264
(dp265
g21
I14521
sg29
Nsg30
(lp266
(I00
I14521
tp267
asg33
Nsbsg34
I3
sg35
F14522.5
sbs(g9
g47
tp268
g0
(g16
g2
Ntp269
Rp270
(dp271
g20
F0.5
sg21
I12018
sg22
g0
(g23
g24
(dp272
I00
I12018
stp273
Rp274
(dp275
g21
I12018
sg29
Nsg30
(lp276
(I00
I12018
tp277
asg33
Nsbsg34
I3
sg35
F12019.5
sbs(g11
g58
tp278
g0
(g16
g2
Ntp279
Rp280
(dp281
g20
F0.5
sg21
I2297
sg22
g0
(g23
g24
(dp282
I00
I2297
stp283
Rp284
(dp285
g21
I2297
sg29
Nsg30
(lp286
(I00
I2297
tp287
asg33
Nsbsg34
I3
sg35
F2298.5
sbs(g11
g69
tp288
g0
(g16
g2
Ntp289
Rp290
(dp291
g20
F0.5
sg21
I2297
sg22
g0
(g23
g24
(dp292
I00
I1151
sI01
I1146
stp293
Rp294
(dp295
g21
I2297
sg29
Nsg30
(lp296
(I00
I1151
tp297
a(I01
I1146
tp298
asg33
Nsbsg34
I3
sg35
F2298.5
sbs(g9
g58
tp299
g0
(g16
g2
Ntp300
Rp301
(dp302
g20
F0.5
sg21
I12018
sg22
g0
(g23
g24
(dp303
I00
I12018
stp304
Rp305
(dp306
g21
I12018
sg29
Nsg30
(lp307
(I00
I12018
tp308
asg33
Nsbsg34
I3
sg35
F12019.5
sbs(g10
g47
tp309
g0
(g16
g2
Ntp310
Rp311
(dp312
g20
F0.5
sg21
I5184
sg22
g0
(g23
g24
(dp313
I00
I1720
sI01
I3464
stp314
Rp315
(dp316
g21
I5184
sg29
Nsg30
(lp317
(I01
I3464
tp318
a(I00
I1720
tp319
asg33
Nsbsg34
I3
sg35
F5185.5
sbssS'_label_probdist'
p320
g0
(g16
g2
Ntp321
Rp322
(dp323
g20
F0.5
sg21
I34020
sg22
g0
(g23
g24
(dp324
g9
I12018
sg10
I5184
sg8
I14521
sg11
I2297
stp325
Rp326
(dp327
g21
I34020
sg29
Nsg30
(lp328
(g8
I14521
tp329
a(g9
I12018
tp330
a(g10
I5184
tp331
a(g11
I2297
tp332
asg33
Nsbsg34
I4
sg35
F34022.0
sbsb.