ccopy_reg
_reconstructor
p0
(cnltk.classify.naivebayes
NaiveBayesClassifier
p1
c__builtin__
object
p2
Ntp3
Rp4
(dp5
S'_labels'
p6
(lp7
VWind Speed StDev
p8
aVWind Speed
p9
aVWind Direction
p10
aVTI
p11
asS'_feature_probdist'
p12
(dp13
(g8
S'Has wd'
p14
tp15
g0
(cnltk.probability
ELEProbDist
p16
g2
Ntp17
Rp18
(dp19
S'_gamma'
p20
F0.5
sS'_N'
p21
I14521
sS'_freqdist'
p22
g0
(cnltk.probability
FreqDist
p23
c__builtin__
dict
p24
(dp25
I00
I14521
stp26
Rp27
(dp28
g21
I14521
sS'_max_cache'
p29
NsS'_item_cache'
p30
(lp31
(I00
I14521
tp32
asS'_Nr_cache'
p33
NsbsS'_bins'
p34
I3
sS'_divisor'
p35
F14522.5
sbs(g10
S'Has windd'
p36
tp37
g0
(g16
g2
Ntp38
Rp39
(dp40
g20
F0.5
sg21
I5184
sg22
g0
(g23
g24
(dp41
I00
I3455
sI01
I1729
stp42
Rp43
(dp44
g21
I5184
sg29
Nsg30
(lp45
(I00
I3455
tp46
a(I01
I1729
tp47
asg33
Nsbsg34
I3
sg35
F5185.5
sbs(g8
S'Has dir'
p48
tp49
g0
(g16
g2
Ntp50
Rp51
(dp52
g20
F0.5
sg21
I14521
sg22
g0
(g23
g24
(dp53
I00
I14521
stp54
Rp55
(dp56
g21
I14521
sg29
Nsg30
(lp57
(I00
I14521
tp58
asg33
Nsbsg34
I3
sg35
F14522.5
sbs(g10
S'Has dev'
p59
tp60
g0
(g16
g2
Ntp61
Rp62
(dp63
g20
F0.5
sg21
I5184
sg22
g0
(g23
g24
(dp64
I00
I5184
stp65
Rp66
(dp67
g21
I5184
sg29
Nsg30
(lp68
(I00
I5184
tp69
asg33
Nsbsg34
I3
sg35
F5185.5
sbs(g10
S'Has turb'
p70
tp71
g0
(g16
g2
Ntp72
Rp73
(dp74
g20
F0.5
sg21
I5184
sg22
g0
(g23
g24
(dp75
I00
I5184
stp76
Rp77
(dp78
g21
I5184
sg29
Nsg30
(lp79
(I00
I5184
tp80
asg33
Nsbsg34
I3
sg35
F5185.5
sbs(g8
g59
tp81
g0
(g16
g2
Ntp82
Rp83
(dp84
g20
F0.5
sg21
I14521
sg22
g0
(g23
g24
(dp85
I00
I2428
sI01
I12093
stp86
Rp87
(dp88
g21
I14521
sg29
Nsg30
(lp89
(I01
I12093
tp90
a(I00
I2428
tp91
asg33
Nsbsg34
I3
sg35
F14522.5
sbs(g11
g48
tp92
g0
(g16
g2
Ntp93
Rp94
(dp95
g20
F0.5
sg21
I2297
sg22
g0
(g23
g24
(dp96
I00
I2297
stp97
Rp98
(dp99
g21
I2297
sg29
Nsg30
(lp100
(I00
I2297
tp101
asg33
Nsbsg34
I3
sg35
F2298.5
sbs(g11
g14
tp102
g0
(g16
g2
Ntp103
Rp104
(dp105
g20
F0.5
sg21
I2297
sg22
g0
(g23
g24
(dp106
I00
I2297
stp107
Rp108
(dp109
g21
I2297
sg29
Nsg30
(lp110
(I00
I2297
tp111
asg33
Nsbsg34
I3
sg35
F2298.5
sbs(g10
g14
tp112
g0
(g16
g2
Ntp113
Rp114
(dp115
g20
F0.5
sg21
I5184
sg22
g0
(g23
g24
(dp116
I00
I3456
sI01
I1728
stp117
Rp118
(dp119
g21
I5184
sg29
Nsg30
(lp120
(I00
I3456
tp121
a(I01
I1728
tp122
asg33
Nsbsg34
I3
sg35
F5185.5
sbs(g10
S'Has spd'
p123
tp124
g0
(g16
g2
Ntp125
Rp126
(dp127
g20
F0.5
sg21
I5184
sg22
g0
(g23
g24
(dp128
I00
I5184
stp129
Rp130
(dp131
g21
I5184
sg29
Nsg30
(lp132
(I00
I5184
tp133
asg33
Nsbsg34
I3
sg35
F5185.5
sbs(g11
g123
tp134
g0
(g16
g2
Ntp135
Rp136
(dp137
g20
F0.5
sg21
I2297
sg22
g0
(g23
g24
(dp138
I00
I2297
stp139
Rp140
(dp141
g21
I2297
sg29
Nsg30
(lp142
(I00
I2297
tp143
asg33
Nsbsg34
I3
sg35
F2298.5
sbs(g8
S'Has std'
p144
tp145
g0
(g16
g2
Ntp146
Rp147
(dp148
g20
F0.5
sg21
I14521
sg22
g0
(g23
g24
(dp149
I00
I7249
sI01
I7272
stp150
Rp151
(dp152
g21
I14521
sg29
Nsg30
(lp153
(I01
I7272
tp154
a(I00
I7249
tp155
asg33
Nsbsg34
I3
sg35
F14522.5
sbs(g10
g144
tp156
g0
(g16
g2
Ntp157
Rp158
(dp159
g20
F0.5
sg21
I5184
sg22
g0
(g23
g24
(dp160
I00
I5184
stp161
Rp162
(dp163
g21
I5184
sg29
Nsg30
(lp164
(I00
I5184
tp165
asg33
Nsbsg34
I3
sg35
F5185.5
sbs(g9
g14
tp166
g0
(g16
g2
Ntp167
Rp168
(dp169
g20
F0.5
sg21
I12018
sg22
g0
(g23
g24
(dp170
I00
I12018
stp171
Rp172
(dp173
g21
I12018
sg29
Nsg30
(lp174
(I00
I12018
tp175
asg33
Nsbsg34
I3
sg35
F12019.5
sbs(g8
g123
tp176
g0
(g16
g2
Ntp177
Rp178
(dp179
g20
F0.5
sg21
I14521
sg22
g0
(g23
g24
(dp180
I00
I10381
sI01
I4140
stp181
Rp182
(dp183
g21
I14521
sg29
Nsg30
(lp184
(I00
I10381
tp185
a(I01
I4140
tp186
asg33
Nsbsg34
I3
sg35
F14522.5
sbs(g8
S'Has TI'
p187
tp188
g0
(g16
g2
Ntp189
Rp190
(dp191
g20
F0.5
sg21
I14521
sg22
g0
(g23
g24
(dp192
I00
I14521
stp193
Rp194
(dp195
g21
I14521
sg29
Nsg30
(lp196
(I00
I14521
tp197
asg33
Nsbsg34
I3
sg35
F14522.5
sbs(g9
g144
tp198
g0
(g16
g2
Ntp199
Rp200
(dp201
g20
F0.5
sg21
I12018
sg22
g0
(g23
g24
(dp202
I00
I12018
stp203
Rp204
(dp205
g21
I12018
sg29
Nsg30
(lp206
(I00
I12018
tp207
asg33
Nsbsg34
I3
sg35
F12019.5
sbs(g9
g70
tp208
g0
(g16
g2
Ntp209
Rp210
(dp211
g20
F0.5
sg21
I12018
sg22
g0
(g23
g24
(dp212
I00
I12018
stp213
Rp214
(dp215
g21
I12018
sg29
Nsg30
(lp216
(I00
I12018
tp217
asg33
Nsbsg34
I3
sg35
F12019.5
sbs(g9
g123
tp218
g0
(g16
g2
Ntp219
Rp220
(dp221
g20
F0.5
sg21
I12018
sg22
g0
(g23
g24
(dp222
I00
I8592
sI01
I3426
stp223
Rp224
(dp225
g21
I12018
sg29
Nsg30
(lp226
(I00
I8592
tp227
a(I01
I3426
tp228
asg33
Nsbsg34
I3
sg35
F12019.5
sbs(g9
g36
tp229
g0
(g16
g2
Ntp230
Rp231
(dp232
g20
F0.5
sg21
I12018
sg22
g0
(g23
g24
(dp233
I00
I12018
stp234
Rp235
(dp236
g21
I12018
sg29
Nsg30
(lp237
(I00
I12018
tp238
asg33
Nsbsg34
I3
sg35
F12019.5
sbs(g11
g144
tp239
g0
(g16
g2
Ntp240
Rp241
(dp242
g20
F0.5
sg21
I2297
sg22
g0
(g23
g24
(dp243
I00
I2297
stp244
Rp245
(dp246
g21
I2297
sg29
Nsg30
(lp247
(I00
I2297
tp248
asg33
Nsbsg34
I3
sg35
F2298.5
sbs(g11
g187
tp249
g0
(g16
g2
Ntp250
Rp251
(dp252
g20
F0.5
sg21
I2297
sg22
g0
(g23
g24
(dp253
I00
I1721
sI01
I576
stp254
Rp255
(dp256
g21
I2297
sg29
Nsg30
(lp257
(I00
I1721
tp258
a(I01
I576
tp259
asg33
Nsbsg34
I3
sg35
F2298.5
sbs(g8
g70
tp260
g0
(g16
g2
Ntp261
Rp262
(dp263
g20
F0.5
sg21
I14521
sg22
g0
(g23
g24
(dp264
I00
I14521
stp265
Rp266
(dp267
g21
I14521
sg29
Nsg30
(lp268
(I00
I14521
tp269
asg33
Nsbsg34
I3
sg35
F14522.5
sbs(g8
g36
tp270
g0
(g16
g2
Ntp271
Rp272
(dp273
g20
F0.5
sg21
I14521
sg22
g0
(g23
g24
(dp274
I00
I14521
stp275
Rp276
(dp277
g21
I14521
sg29
Nsg30
(lp278
(I00
I14521
tp279
asg33
Nsbsg34
I3
sg35
F14522.5
sbs(g9
g48
tp280
g0
(g16
g2
Ntp281
Rp282
(dp283
g20
F0.5
sg21
I12018
sg22
g0
(g23
g24
(dp284
I00
I12018
stp285
Rp286
(dp287
g21
I12018
sg29
Nsg30
(lp288
(I00
I12018
tp289
asg33
Nsbsg34
I3
sg35
F12019.5
sbs(g10
g187
tp290
g0
(g16
g2
Ntp291
Rp292
(dp293
g20
F0.5
sg21
I5184
sg22
g0
(g23
g24
(dp294
I00
I5184
stp295
Rp296
(dp297
g21
I5184
sg29
Nsg30
(lp298
(I00
I5184
tp299
asg33
Nsbsg34
I3
sg35
F5185.5
sbs(g9
g187
tp300
g0
(g16
g2
Ntp301
Rp302
(dp303
g20
F0.5
sg21
I12018
sg22
g0
(g23
g24
(dp304
I00
I12018
stp305
Rp306
(dp307
g21
I12018
sg29
Nsg30
(lp308
(I00
I12018
tp309
asg33
Nsbsg34
I3
sg35
F12019.5
sbs(g11
g36
tp310
g0
(g16
g2
Ntp311
Rp312
(dp313
g20
F0.5
sg21
I2297
sg22
g0
(g23
g24
(dp314
I00
I2297
stp315
Rp316
(dp317
g21
I2297
sg29
Nsg30
(lp318
(I00
I2297
tp319
asg33
Nsbsg34
I3
sg35
F2298.5
sbs(g11
g59
tp320
g0
(g16
g2
Ntp321
Rp322
(dp323
g20
F0.5
sg21
I2297
sg22
g0
(g23
g24
(dp324
I00
I2297
stp325
Rp326
(dp327
g21
I2297
sg29
Nsg30
(lp328
(I00
I2297
tp329
asg33
Nsbsg34
I3
sg35
F2298.5
sbs(g11
g70
tp330
g0
(g16
g2
Ntp331
Rp332
(dp333
g20
F0.5
sg21
I2297
sg22
g0
(g23
g24
(dp334
I00
I1151
sI01
I1146
stp335
Rp336
(dp337
g21
I2297
sg29
Nsg30
(lp338
(I00
I1151
tp339
a(I01
I1146
tp340
asg33
Nsbsg34
I3
sg35
F2298.5
sbs(g9
g59
tp341
g0
(g16
g2
Ntp342
Rp343
(dp344
g20
F0.5
sg21
I12018
sg22
g0
(g23
g24
(dp345
I00
I12018
stp346
Rp347
(dp348
g21
I12018
sg29
Nsg30
(lp349
(I00
I12018
tp350
asg33
Nsbsg34
I3
sg35
F12019.5
sbs(g10
g48
tp351
g0
(g16
g2
Ntp352
Rp353
(dp354
g20
F0.5
sg21
I5184
sg22
g0
(g23
g24
(dp355
I00
I1720
sI01
I3464
stp356
Rp357
(dp358
g21
I5184
sg29
Nsg30
(lp359
(I01
I3464
tp360
a(I00
I1720
tp361
asg33
Nsbsg34
I3
sg35
F5185.5
sbssS'_label_probdist'
p362
g0
(g16
g2
Ntp363
Rp364
(dp365
g20
F0.5
sg21
I34020
sg22
g0
(g23
g24
(dp366
g9
I12018
sg10
I5184
sg8
I14521
sg11
I2297
stp367
Rp368
(dp369
g21
I34020
sg29
Nsg30
(lp370
(g8
I14521
tp371
a(g9
I12018
tp372
a(g10
I5184
tp373
a(g11
I2297
tp374
asg33
Nsbsg34
I4
sg35
F34022.0
sbsb.