ccopy_reg
_reconstructor
p0
(cnltk.classify.naivebayes
NaiveBayesClassifier
p1
c__builtin__
object
p2
Ntp3
Rp4
(dp5
S'_labels'
p6
(lp7
S'WS StdDev'
p8
aS'WD StdDev'
p9
aS'TI StdDev'
p10
aS'WS Mean'
p11
aS'WD Mean'
p12
aS'TI Mean'
p13
aS'WS Max'
p14
aS'WS Min'
p15
aS'Temp StdDev'
p16
aS'Rho StdDev'
p17
aS'WD Min'
p18
aS'WD Max'
p19
aS'TI Min'
p20
aS'TI Max'
p21
aS'Rho Mean'
p22
aS'Temp Mean'
p23
aS'Temp Min'
p24
aS'Rho Min'
p25
aS'Rho Max'
p26
aS'Temp Max'
p27
asS'_feature_probdist'
p28
(dp29
(g17
S'Has speed'
p30
tp31
g0
(cnltk.probability
ELEProbDist
p32
g2
Ntp33
Rp34
(dp35
S'_gamma'
p36
F0.5
sS'_N'
p37
I1753
sS'_freqdist'
p38
g0
(cnltk.probability
FreqDist
p39
c__builtin__
dict
p40
(dp41
I00
I1753
stp42
Rp43
(dp44
g37
I1753
sS'_max_cache'
p45
NsS'_item_cache'
p46
(lp47
(I00
I1753
tp48
asS'_Nr_cache'
p49
NsbsS'_bins'
p50
I3
sS'_divisor'
p51
F1754.5
sbs(g8
S'Has std'
p52
tp53
g0
(g32
g2
Ntp54
Rp55
(dp56
g36
F0.5
sg37
I5242
sg38
g0
(g39
g40
(dp57
I00
I2092
sI01
I3150
stp58
Rp59
(dp60
g37
I5242
sg45
Nsg46
(lp61
(I01
I3150
tp62
a(I00
I2092
tp63
asg49
Nsbsg50
I3
sg51
F5243.5
sbs(g25
S'Has turb'
p64
tp65
g0
(g32
g2
Ntp66
Rp67
(dp68
g36
F0.5
sg37
I695
sg38
g0
(g39
g40
(dp69
I00
I695
stp70
Rp71
(dp72
g37
I695
sg45
Nsg46
(lp73
(I00
I695
tp74
asg49
Nsbsg50
I3
sg51
F696.5
sbs(g18
S'has dens'
p75
tp76
g0
(g32
g2
Ntp77
Rp78
(dp79
g36
F0.5
sg37
I1641
sg38
g0
(g39
g40
(dp80
I00
I1641
stp81
Rp82
(dp83
g37
I1641
sg45
Nsg46
(lp84
(I00
I1641
tp85
asg49
Nsbsg50
I3
sg51
F1642.5
sbs(g19
S'Has Max'
p86
tp87
g0
(g32
g2
Ntp88
Rp89
(dp90
g36
F0.5
sg37
I1640
sg38
g0
(g39
g40
(dp91
I01
I1640
stp92
Rp93
(dp94
g37
I1640
sg45
Nsg46
(lp95
(I01
I1640
tp96
asg49
Nsbsg50
I3
sg51
F1641.5
sbs(g9
g64
tp97
g0
(g32
g2
Ntp98
Rp99
(dp100
g36
F0.5
sg37
I4069
sg38
g0
(g39
g40
(dp101
I00
I4069
stp102
Rp103
(dp104
g37
I4069
sg45
Nsg46
(lp105
(I00
I4069
tp106
asg49
Nsbsg50
I3
sg51
F4070.5
sbs(g8
S'Has dir'
p107
tp108
g0
(g32
g2
Ntp109
Rp110
(dp111
g36
F0.5
sg37
I5242
sg38
g0
(g39
g40
(dp112
I00
I5242
stp113
Rp114
(dp115
g37
I5242
sg45
Nsg46
(lp116
(I00
I5242
tp117
asg49
Nsbsg50
I3
sg51
F5243.5
sbs(g15
S'Has TI'
p118
tp119
g0
(g32
g2
Ntp120
Rp121
(dp122
g36
F0.5
sg37
I2085
sg38
g0
(g39
g40
(dp123
I00
I2085
stp124
Rp125
(dp126
g37
I2085
sg45
Nsg46
(lp127
(I00
I2085
tp128
asg49
Nsbsg50
I3
sg51
F2086.5
sbs(g26
S'Has windd'
p129
tp130
g0
(g32
g2
Ntp131
Rp132
(dp133
g36
F0.5
sg37
I694
sg38
g0
(g39
g40
(dp134
I00
I694
stp135
Rp136
(dp137
g37
I694
sg45
Nsg46
(lp138
(I00
I694
tp139
asg49
Nsbsg50
I3
sg51
F695.5
sbs(g24
S'has rho'
p140
tp141
g0
(g32
g2
Ntp142
Rp143
(dp144
g36
F0.5
sg37
I702
sg38
g0
(g39
g40
(dp145
I00
I702
stp146
Rp147
(dp148
g37
I702
sg45
Nsg46
(lp149
(I00
I702
tp150
asg49
Nsbsg50
I3
sg51
F703.5
sbs(g18
g52
tp151
g0
(g32
g2
Ntp152
Rp153
(dp154
g36
F0.5
sg37
I1641
sg38
g0
(g39
g40
(dp155
I00
I1641
stp156
Rp157
(dp158
g37
I1641
sg45
Nsg46
(lp159
(I00
I1641
tp160
asg49
Nsbsg50
I3
sg51
F1642.5
sbs(g10
g30
tp161
g0
(g32
g2
Ntp162
Rp163
(dp164
g36
F0.5
sg37
I3478
sg38
g0
(g39
g40
(dp165
I00
I3478
stp166
Rp167
(dp168
g37
I3478
sg45
Nsg46
(lp169
(I00
I3478
tp170
asg49
Nsbsg50
I3
sg51
F3479.5
sbs(g21
g140
tp171
g0
(g32
g2
Ntp172
Rp173
(dp174
g36
F0.5
sg37
I1391
sg38
g0
(g39
g40
(dp175
I00
I1391
stp176
Rp177
(dp178
g37
I1391
sg45
Nsg46
(lp179
(I00
I1391
tp180
asg49
Nsbsg50
I3
sg51
F1392.5
sbs(g22
g30
tp181
g0
(g32
g2
Ntp182
Rp183
(dp184
g36
F0.5
sg37
I1053
sg38
g0
(g39
g40
(dp185
I00
I1053
stp186
Rp187
(dp188
g37
I1053
sg45
Nsg46
(lp189
(I00
I1053
tp190
asg49
Nsbsg50
I3
sg51
F1054.5
sbs(g13
g118
tp191
g0
(g32
g2
Ntp192
Rp193
(dp194
g36
F0.5
sg37
I2116
sg38
g0
(g39
g40
(dp195
I00
I1410
sI01
I706
stp196
Rp197
(dp198
g37
I2116
sg45
Nsg46
(lp199
(I00
I1410
tp200
a(I01
I706
tp201
asg49
Nsbsg50
I3
sg51
F2117.5
sbs(g14
g118
tp202
g0
(g32
g2
Ntp203
Rp204
(dp205
g36
F0.5
sg37
I2091
sg38
g0
(g39
g40
(dp206
I00
I2091
stp207
Rp208
(dp209
g37
I2091
sg45
Nsg46
(lp210
(I00
I2091
tp211
asg49
Nsbsg50
I3
sg51
F2092.5
sbs(g15
g30
tp212
g0
(g32
g2
Ntp213
Rp214
(dp215
g36
F0.5
sg37
I2085
sg38
g0
(g39
g40
(dp216
I00
I1158
sI01
I927
stp217
Rp218
(dp219
g37
I2085
sg45
Nsg46
(lp220
(I00
I1158
tp221
a(I01
I927
tp222
asg49
Nsbsg50
I3
sg51
F2086.5
sbs(g20
S'Has Min'
p223
tp224
g0
(g32
g2
Ntp225
Rp226
(dp227
g36
F0.5
sg37
I1403
sg38
g0
(g39
g40
(dp228
I01
I1403
stp229
Rp230
(dp231
g37
I1403
sg45
Nsg46
(lp232
(I01
I1403
tp233
asg49
Nsbsg50
I3
sg51
F1404.5
sbs(g25
g52
tp234
g0
(g32
g2
Ntp235
Rp236
(dp237
g36
F0.5
sg37
I695
sg38
g0
(g39
g40
(dp238
I00
I695
stp239
Rp240
(dp241
g37
I695
sg45
Nsg46
(lp242
(I00
I695
tp243
asg49
Nsbsg50
I3
sg51
F696.5
sbs(g15
g64
tp244
g0
(g32
g2
Ntp245
Rp246
(dp247
g36
F0.5
sg37
I2085
sg38
g0
(g39
g40
(dp248
I00
I2085
stp249
Rp250
(dp251
g37
I2085
sg45
Nsg46
(lp252
(I00
I2085
tp253
asg49
Nsbsg50
I3
sg51
F2086.5
sbs(g21
g52
tp254
g0
(g32
g2
Ntp255
Rp256
(dp257
g36
F0.5
sg37
I1391
sg38
g0
(g39
g40
(dp258
I00
I1391
stp259
Rp260
(dp261
g37
I1391
sg45
Nsg46
(lp262
(I00
I1391
tp263
asg49
Nsbsg50
I3
sg51
F1392.5
sbs(g13
g86
tp264
g0
(g32
g2
Ntp265
Rp266
(dp267
g36
F0.5
sg37
I2116
sg38
g0
(g39
g40
(dp268
I00
I2116
stp269
Rp270
(dp271
g37
I2116
sg45
Nsg46
(lp272
(I00
I2116
tp273
asg49
Nsbsg50
I3
sg51
F2117.5
sbs(g14
g52
tp274
g0
(g32
g2
Ntp275
Rp276
(dp277
g36
F0.5
sg37
I2091
sg38
g0
(g39
g40
(dp278
I00
I2091
stp279
Rp280
(dp281
g37
I2091
sg45
Nsg46
(lp282
(I00
I2091
tp283
asg49
Nsbsg50
I3
sg51
F2092.5
sbs(g15
g86
tp284
g0
(g32
g2
Ntp285
Rp286
(dp287
g36
F0.5
sg37
I2085
sg38
g0
(g39
g40
(dp288
I00
I2085
stp289
Rp290
(dp291
g37
I2085
sg45
Nsg46
(lp292
(I00
I2085
tp293
asg49
Nsbsg50
I3
sg51
F2086.5
sbs(g24
g129
tp294
g0
(g32
g2
Ntp295
Rp296
(dp297
g36
F0.5
sg37
I702
sg38
g0
(g39
g40
(dp298
I00
I702
stp299
Rp300
(dp301
g37
I702
sg45
Nsg46
(lp302
(I00
I702
tp303
asg49
Nsbsg50
I3
sg51
F703.5
sbs(g9
S'Has temp'
p304
tp305
g0
(g32
g2
Ntp306
Rp307
(dp308
g36
F0.5
sg37
I4069
sg38
g0
(g39
g40
(dp309
I00
I4069
stp310
Rp311
(dp312
g37
I4069
sg45
Nsg46
(lp313
(I00
I4069
tp314
asg49
Nsbsg50
I3
sg51
F4070.5
sbs(g18
g140
tp315
g0
(g32
g2
Ntp316
Rp317
(dp318
g36
F0.5
sg37
I1641
sg38
g0
(g39
g40
(dp319
I00
I1641
stp320
Rp321
(dp322
g37
I1641
sg45
Nsg46
(lp323
(I00
I1641
tp324
asg49
Nsbsg50
I3
sg51
F1642.5
sbs(g10
g107
tp325
g0
(g32
g2
Ntp326
Rp327
(dp328
g36
F0.5
sg37
I3478
sg38
g0
(g39
g40
(dp329
I00
I3478
stp330
Rp331
(dp332
g37
I3478
sg45
Nsg46
(lp333
(I00
I3478
tp334
asg49
Nsbsg50
I3
sg51
F3479.5
sbs(g11
g64
tp335
g0
(g32
g2
Ntp336
Rp337
(dp338
g36
F0.5
sg37
I3164
sg38
g0
(g39
g40
(dp339
I00
I3164
stp340
Rp341
(dp342
g37
I3164
sg45
Nsg46
(lp343
(I00
I3164
tp344
asg49
Nsbsg50
I3
sg51
F3165.5
sbs(g23
g30
tp345
g0
(g32
g2
Ntp346
Rp347
(dp348
g36
F0.5
sg37
I1043
sg38
g0
(g39
g40
(dp349
I00
I1043
stp350
Rp351
(dp352
g37
I1043
sg45
Nsg46
(lp353
(I00
I1043
tp354
asg49
Nsbsg50
I3
sg51
F1044.5
sbs(g16
g140
tp355
g0
(g32
g2
Ntp356
Rp357
(dp358
g36
F0.5
sg37
I1755
sg38
g0
(g39
g40
(dp359
I00
I1755
stp360
Rp361
(dp362
g37
I1755
sg45
Nsg46
(lp363
(I00
I1755
tp364
asg49
Nsbsg50
I3
sg51
F1756.5
sbs(g27
S'Has wd'
p365
tp366
g0
(g32
g2
Ntp367
Rp368
(dp369
g36
F0.5
sg37
I693
sg38
g0
(g39
g40
(dp370
I00
I693
stp371
Rp372
(dp373
g37
I693
sg45
Nsg46
(lp374
(I00
I693
tp375
asg49
Nsbsg50
I3
sg51
F694.5
sbs(g15
g75
tp376
g0
(g32
g2
Ntp377
Rp378
(dp379
g36
F0.5
sg37
I2085
sg38
g0
(g39
g40
(dp380
I00
I2085
stp381
Rp382
(dp383
g37
I2085
sg45
Nsg46
(lp384
(I00
I2085
tp385
asg49
Nsbsg50
I3
sg51
F2086.5
sbs(g20
g365
tp386
g0
(g32
g2
Ntp387
Rp388
(dp389
g36
F0.5
sg37
I1403
sg38
g0
(g39
g40
(dp390
I00
I1403
stp391
Rp392
(dp393
g37
I1403
sg45
Nsg46
(lp394
(I00
I1403
tp395
asg49
Nsbsg50
I3
sg51
F1404.5
sbs(g13
g304
tp396
g0
(g32
g2
Ntp397
Rp398
(dp399
g36
F0.5
sg37
I2116
sg38
g0
(g39
g40
(dp400
I00
I2116
stp401
Rp402
(dp403
g37
I2116
sg45
Nsg46
(lp404
(I00
I2116
tp405
asg49
Nsbsg50
I3
sg51
F2117.5
sbs(g11
S'Has w&s'
p406
tp407
g0
(g32
g2
Ntp408
Rp409
(dp410
g36
F0.5
sg37
I3164
sg38
g0
(g39
g40
(dp411
I01
I3164
stp412
Rp413
(dp414
g37
I3164
sg45
Nsg46
(lp415
(I01
I3164
tp416
asg49
Nsbsg50
I3
sg51
F3165.5
sbs(g8
g75
tp417
g0
(g32
g2
Ntp418
Rp419
(dp420
g36
F0.5
sg37
I5242
sg38
g0
(g39
g40
(dp421
I00
I5242
stp422
Rp423
(dp424
g37
I5242
sg45
Nsg46
(lp425
(I00
I5242
tp426
asg49
Nsbsg50
I3
sg51
F5243.5
sbs(g15
g107
tp427
g0
(g32
g2
Ntp428
Rp429
(dp430
g36
F0.5
sg37
I2085
sg38
g0
(g39
g40
(dp431
I00
I2085
stp432
Rp433
(dp434
g37
I2085
sg45
Nsg46
(lp435
(I00
I2085
tp436
asg49
Nsbsg50
I3
sg51
F2086.5
sbs(g16
S'has mean'
p437
tp438
g0
(g32
g2
Ntp439
Rp440
(dp441
g36
F0.5
sg37
I1755
sg38
g0
(g39
g40
(dp442
I00
I1755
stp443
Rp444
(dp445
g37
I1755
sg45
Nsg46
(lp446
(I00
I1755
tp447
asg49
Nsbsg50
I3
sg51
F1756.5
sbs(g27
g75
tp448
g0
(g32
g2
Ntp449
Rp450
(dp451
g36
F0.5
sg37
I693
sg38
g0
(g39
g40
(dp452
I00
I693
stp453
Rp454
(dp455
g37
I693
sg45
Nsg46
(lp456
(I00
I693
tp457
asg49
Nsbsg50
I3
sg51
F694.5
sbs(g18
g437
tp458
g0
(g32
g2
Ntp459
Rp460
(dp461
g36
F0.5
sg37
I1641
sg38
g0
(g39
g40
(dp462
I00
I1641
stp463
Rp464
(dp465
g37
I1641
sg45
Nsg46
(lp466
(I00
I1641
tp467
asg49
Nsbsg50
I3
sg51
F1642.5
sbs(g26
g118
tp468
g0
(g32
g2
Ntp469
Rp470
(dp471
g36
F0.5
sg37
I694
sg38
g0
(g39
g40
(dp472
I00
I694
stp473
Rp474
(dp475
g37
I694
sg45
Nsg46
(lp476
(I00
I694
tp477
asg49
Nsbsg50
I3
sg51
F695.5
sbs(g18
g118
tp478
g0
(g32
g2
Ntp479
Rp480
(dp481
g36
F0.5
sg37
I1641
sg38
g0
(g39
g40
(dp482
I00
I1641
stp483
Rp484
(dp485
g37
I1641
sg45
Nsg46
(lp486
(I00
I1641
tp487
asg49
Nsbsg50
I3
sg51
F1642.5
sbs(g24
g75
tp488
g0
(g32
g2
Ntp489
Rp490
(dp491
g36
F0.5
sg37
I702
sg38
g0
(g39
g40
(dp492
I00
I702
stp493
Rp494
(dp495
g37
I702
sg45
Nsg46
(lp496
(I00
I702
tp497
asg49
Nsbsg50
I3
sg51
F703.5
sbs(g11
g118
tp498
g0
(g32
g2
Ntp499
Rp500
(dp501
g36
F0.5
sg37
I3164
sg38
g0
(g39
g40
(dp502
I00
I3164
stp503
Rp504
(dp505
g37
I3164
sg45
Nsg46
(lp506
(I00
I3164
tp507
asg49
Nsbsg50
I3
sg51
F3165.5
sbs(g21
g223
tp508
g0
(g32
g2
Ntp509
Rp510
(dp511
g36
F0.5
sg37
I1391
sg38
g0
(g39
g40
(dp512
I00
I1391
stp513
Rp514
(dp515
g37
I1391
sg45
Nsg46
(lp516
(I00
I1391
tp517
asg49
Nsbsg50
I3
sg51
F1392.5
sbs(g27
g52
tp518
g0
(g32
g2
Ntp519
Rp520
(dp521
g36
F0.5
sg37
I693
sg38
g0
(g39
g40
(dp522
I00
I693
stp523
Rp524
(dp525
g37
I693
sg45
Nsg46
(lp526
(I00
I693
tp527
asg49
Nsbsg50
I3
sg51
F694.5
sbs(g16
g75
tp528
g0
(g32
g2
Ntp529
Rp530
(dp531
g36
F0.5
sg37
I1755
sg38
g0
(g39
g40
(dp532
I00
I1755
stp533
Rp534
(dp535
g37
I1755
sg45
Nsg46
(lp536
(I00
I1755
tp537
asg49
Nsbsg50
I3
sg51
F1756.5
sbs(g19
g304
tp538
g0
(g32
g2
Ntp539
Rp540
(dp541
g36
F0.5
sg37
I1640
sg38
g0
(g39
g40
(dp542
I00
I1640
stp543
Rp544
(dp545
g37
I1640
sg45
Nsg46
(lp546
(I00
I1640
tp547
asg49
Nsbsg50
I3
sg51
F1641.5
sbs(g23
g140
tp548
g0
(g32
g2
Ntp549
Rp550
(dp551
g36
F0.5
sg37
I1043
sg38
g0
(g39
g40
(dp552
I00
I1043
stp553
Rp554
(dp555
g37
I1043
sg45
Nsg46
(lp556
(I00
I1043
tp557
asg49
Nsbsg50
I3
sg51
F1044.5
sbs(g25
g406
tp558
g0
(g32
g2
Ntp559
Rp560
(dp561
g36
F0.5
sg37
I695
sg38
g0
(g39
g40
(dp562
I00
I695
stp563
Rp564
(dp565
g37
I695
sg45
Nsg46
(lp566
(I00
I695
tp567
asg49
Nsbsg50
I3
sg51
F696.5
sbs(g15
S'Has dev'
p568
tp569
g0
(g32
g2
Ntp570
Rp571
(dp572
g36
F0.5
sg37
I2085
sg38
g0
(g39
g40
(dp573
I00
I2085
stp574
Rp575
(dp576
g37
I2085
sg45
Nsg46
(lp577
(I00
I2085
tp578
asg49
Nsbsg50
I3
sg51
F2086.5
sbs(g13
g568
tp579
g0
(g32
g2
Ntp580
Rp581
(dp582
g36
F0.5
sg37
I2116
sg38
g0
(g39
g40
(dp583
I00
I2116
stp584
Rp585
(dp586
g37
I2116
sg45
Nsg46
(lp587
(I00
I2116
tp588
asg49
Nsbsg50
I3
sg51
F2117.5
sbs(g25
g107
tp589
g0
(g32
g2
Ntp590
Rp591
(dp592
g36
F0.5
sg37
I695
sg38
g0
(g39
g40
(dp593
I00
I695
stp594
Rp595
(dp596
g37
I695
sg45
Nsg46
(lp597
(I00
I695
tp598
asg49
Nsbsg50
I3
sg51
F696.5
sbs(g13
g75
tp599
g0
(g32
g2
Ntp600
Rp601
(dp602
g36
F0.5
sg37
I2116
sg38
g0
(g39
g40
(dp603
I00
I2116
stp604
Rp605
(dp606
g37
I2116
sg45
Nsg46
(lp607
(I00
I2116
tp608
asg49
Nsbsg50
I3
sg51
F2117.5
sbs(g21
g118
tp609
g0
(g32
g2
Ntp610
Rp611
(dp612
g36
F0.5
sg37
I1391
sg38
g0
(g39
g40
(dp613
I00
I927
sI01
I464
stp614
Rp615
(dp616
g37
I1391
sg45
Nsg46
(lp617
(I00
I927
tp618
a(I01
I464
tp619
asg49
Nsbsg50
I3
sg51
F1392.5
sbs(g18
g107
tp620
g0
(g32
g2
Ntp621
Rp622
(dp623
g36
F0.5
sg37
I1641
sg38
g0
(g39
g40
(dp624
I00
I239
sI01
I1402
stp625
Rp626
(dp627
g37
I1641
sg45
Nsg46
(lp628
(I01
I1402
tp629
a(I00
I239
tp630
asg49
Nsbsg50
I3
sg51
F1642.5
sbs(g27
g140
tp631
g0
(g32
g2
Ntp632
Rp633
(dp634
g36
F0.5
sg37
I693
sg38
g0
(g39
g40
(dp635
I00
I693
stp636
Rp637
(dp638
g37
I693
sg45
Nsg46
(lp639
(I00
I693
tp640
asg49
Nsbsg50
I3
sg51
F694.5
sbs(g8
g304
tp641
g0
(g32
g2
Ntp642
Rp643
(dp644
g36
F0.5
sg37
I5242
sg38
g0
(g39
g40
(dp645
I00
I5242
stp646
Rp647
(dp648
g37
I5242
sg45
Nsg46
(lp649
(I00
I5242
tp650
asg49
Nsbsg50
I3
sg51
F5243.5
sbs(g8
g64
tp651
g0
(g32
g2
Ntp652
Rp653
(dp654
g36
F0.5
sg37
I5242
sg38
g0
(g39
g40
(dp655
I00
I5242
stp656
Rp657
(dp658
g37
I5242
sg45
Nsg46
(lp659
(I00
I5242
tp660
asg49
Nsbsg50
I3
sg51
F5243.5
sbs(g16
g107
tp661
g0
(g32
g2
Ntp662
Rp663
(dp664
g36
F0.5
sg37
I1755
sg38
g0
(g39
g40
(dp665
I00
I1755
stp666
Rp667
(dp668
g37
I1755
sg45
Nsg46
(lp669
(I00
I1755
tp670
asg49
Nsbsg50
I3
sg51
F1756.5
sbs(g18
g365
tp671
g0
(g32
g2
Ntp672
Rp673
(dp674
g36
F0.5
sg37
I1641
sg38
g0
(g39
g40
(dp675
I00
I936
sI01
I705
stp676
Rp677
(dp678
g37
I1641
sg45
Nsg46
(lp679
(I00
I936
tp680
a(I01
I705
tp681
asg49
Nsbsg50
I3
sg51
F1642.5
sbs(g23
g129
tp682
g0
(g32
g2
Ntp683
Rp684
(dp685
g36
F0.5
sg37
I1043
sg38
g0
(g39
g40
(dp686
I00
I1043
stp687
Rp688
(dp689
g37
I1043
sg45
Nsg46
(lp690
(I00
I1043
tp691
asg49
Nsbsg50
I3
sg51
F1044.5
sbs(g9
g568
tp692
g0
(g32
g2
Ntp693
Rp694
(dp695
g36
F0.5
sg37
I4069
sg38
g0
(g39
g40
(dp696
I01
I4069
stp697
Rp698
(dp699
g37
I4069
sg45
Nsg46
(lp700
(I01
I4069
tp701
asg49
Nsbsg50
I3
sg51
F4070.5
sbs(g23
g64
tp702
g0
(g32
g2
Ntp703
Rp704
(dp705
g36
F0.5
sg37
I1043
sg38
g0
(g39
g40
(dp706
I00
I1043
stp707
Rp708
(dp709
g37
I1043
sg45
Nsg46
(lp710
(I00
I1043
tp711
asg49
Nsbsg50
I3
sg51
F1044.5
sbs(g17
g365
tp712
g0
(g32
g2
Ntp713
Rp714
(dp715
g36
F0.5
sg37
I1753
sg38
g0
(g39
g40
(dp716
I00
I1753
stp717
Rp718
(dp719
g37
I1753
sg45
Nsg46
(lp720
(I00
I1753
tp721
asg49
Nsbsg50
I3
sg51
F1754.5
sbs(g13
g365
tp722
g0
(g32
g2
Ntp723
Rp724
(dp725
g36
F0.5
sg37
I2116
sg38
g0
(g39
g40
(dp726
I00
I2116
stp727
Rp728
(dp729
g37
I2116
sg45
Nsg46
(lp730
(I00
I2116
tp731
asg49
Nsbsg50
I3
sg51
F2117.5
sbs(g16
g52
tp732
g0
(g32
g2
Ntp733
Rp734
(dp735
g36
F0.5
sg37
I1755
sg38
g0
(g39
g40
(dp736
I00
I706
sI01
I1049
stp737
Rp738
(dp739
g37
I1755
sg45
Nsg46
(lp740
(I01
I1049
tp741
a(I00
I706
tp742
asg49
Nsbsg50
I3
sg51
F1756.5
sbs(g21
g107
tp743
g0
(g32
g2
Ntp744
Rp745
(dp746
g36
F0.5
sg37
I1391
sg38
g0
(g39
g40
(dp747
I00
I1391
stp748
Rp749
(dp750
g37
I1391
sg45
Nsg46
(lp751
(I00
I1391
tp752
asg49
Nsbsg50
I3
sg51
F1392.5
sbs(g19
g568
tp753
g0
(g32
g2
Ntp754
Rp755
(dp756
g36
F0.5
sg37
I1640
sg38
g0
(g39
g40
(dp757
I00
I1640
stp758
Rp759
(dp760
g37
I1640
sg45
Nsg46
(lp761
(I00
I1640
tp762
asg49
Nsbsg50
I3
sg51
F1641.5
sbs(g20
g118
tp763
g0
(g32
g2
Ntp764
Rp765
(dp766
g36
F0.5
sg37
I1403
sg38
g0
(g39
g40
(dp767
I00
I936
sI01
I467
stp768
Rp769
(dp770
g37
I1403
sg45
Nsg46
(lp771
(I00
I936
tp772
a(I01
I467
tp773
asg49
Nsbsg50
I3
sg51
F1404.5
sbs(g25
g86
tp774
g0
(g32
g2
Ntp775
Rp776
(dp777
g36
F0.5
sg37
I695
sg38
g0
(g39
g40
(dp778
I00
I695
stp779
Rp780
(dp781
g37
I695
sg45
Nsg46
(lp782
(I00
I695
tp783
asg49
Nsbsg50
I3
sg51
F696.5
sbs(g10
g75
tp784
g0
(g32
g2
Ntp785
Rp786
(dp787
g36
F0.5
sg37
I3478
sg38
g0
(g39
g40
(dp788
I00
I3478
stp789
Rp790
(dp791
g37
I3478
sg45
Nsg46
(lp792
(I00
I3478
tp793
asg49
Nsbsg50
I3
sg51
F3479.5
sbs(g26
g64
tp794
g0
(g32
g2
Ntp795
Rp796
(dp797
g36
F0.5
sg37
I694
sg38
g0
(g39
g40
(dp798
I00
I694
stp799
Rp800
(dp801
g37
I694
sg45
Nsg46
(lp802
(I00
I694
tp803
asg49
Nsbsg50
I3
sg51
F695.5
sbs(g15
g304
tp804
g0
(g32
g2
Ntp805
Rp806
(dp807
g36
F0.5
sg37
I2085
sg38
g0
(g39
g40
(dp808
I00
I2085
stp809
Rp810
(dp811
g37
I2085
sg45
Nsg46
(lp812
(I00
I2085
tp813
asg49
Nsbsg50
I3
sg51
F2086.5
sbs(g27
g129
tp814
g0
(g32
g2
Ntp815
Rp816
(dp817
g36
F0.5
sg37
I693
sg38
g0
(g39
g40
(dp818
I00
I693
stp819
Rp820
(dp821
g37
I693
sg45
Nsg46
(lp822
(I00
I693
tp823
asg49
Nsbsg50
I3
sg51
F694.5
sbs(g12
g140
tp824
g0
(g32
g2
Ntp825
Rp826
(dp827
g36
F0.5
sg37
I2448
sg38
g0
(g39
g40
(dp828
I00
I2448
stp829
Rp830
(dp831
g37
I2448
sg45
Nsg46
(lp832
(I00
I2448
tp833
asg49
Nsbsg50
I3
sg51
F2449.5
sbs(g9
g75
tp834
g0
(g32
g2
Ntp835
Rp836
(dp837
g36
F0.5
sg37
I4069
sg38
g0
(g39
g40
(dp838
I00
I4069
stp839
Rp840
(dp841
g37
I4069
sg45
Nsg46
(lp842
(I00
I4069
tp843
asg49
Nsbsg50
I3
sg51
F4070.5
sbs(g26
g140
tp844
g0
(g32
g2
Ntp845
Rp846
(dp847
g36
F0.5
sg37
I694
sg38
g0
(g39
g40
(dp848
I00
I460
sI01
I234
stp849
Rp850
(dp851
g37
I694
sg45
Nsg46
(lp852
(I00
I460
tp853
a(I01
I234
tp854
asg49
Nsbsg50
I3
sg51
F695.5
sbs(g10
g437
tp855
g0
(g32
g2
Ntp856
Rp857
(dp858
g36
F0.5
sg37
I3478
sg38
g0
(g39
g40
(dp859
I00
I3478
stp860
Rp861
(dp862
g37
I3478
sg45
Nsg46
(lp863
(I00
I3478
tp864
asg49
Nsbsg50
I3
sg51
F3479.5
sbs(g27
g86
tp865
g0
(g32
g2
Ntp866
Rp867
(dp868
g36
F0.5
sg37
I693
sg38
g0
(g39
g40
(dp869
I01
I693
stp870
Rp871
(dp872
g37
I693
sg45
Nsg46
(lp873
(I01
I693
tp874
asg49
Nsbsg50
I3
sg51
F694.5
sbs(g22
g140
tp875
g0
(g32
g2
Ntp876
Rp877
(dp878
g36
F0.5
sg37
I1053
sg38
g0
(g39
g40
(dp879
I00
I696
sI01
I357
stp880
Rp881
(dp882
g37
I1053
sg45
Nsg46
(lp883
(I00
I696
tp884
a(I01
I357
tp885
asg49
Nsbsg50
I3
sg51
F1054.5
sbs(g10
g406
tp886
g0
(g32
g2
Ntp887
Rp888
(dp889
g36
F0.5
sg37
I3478
sg38
g0
(g39
g40
(dp890
I00
I3478
stp891
Rp892
(dp893
g37
I3478
sg45
Nsg46
(lp894
(I00
I3478
tp895
asg49
Nsbsg50
I3
sg51
F3479.5
sbs(g24
g86
tp896
g0
(g32
g2
Ntp897
Rp898
(dp899
g36
F0.5
sg37
I702
sg38
g0
(g39
g40
(dp900
I00
I702
stp901
Rp902
(dp903
g37
I702
sg45
Nsg46
(lp904
(I00
I702
tp905
asg49
Nsbsg50
I3
sg51
F703.5
sbs(g24
g64
tp906
g0
(g32
g2
Ntp907
Rp908
(dp909
g36
F0.5
sg37
I702
sg38
g0
(g39
g40
(dp910
I00
I702
stp911
Rp912
(dp913
g37
I702
sg45
Nsg46
(lp914
(I00
I702
tp915
asg49
Nsbsg50
I3
sg51
F703.5
sbs(g10
g140
tp916
g0
(g32
g2
Ntp917
Rp918
(dp919
g36
F0.5
sg37
I3478
sg38
g0
(g39
g40
(dp920
I00
I3478
stp921
Rp922
(dp923
g37
I3478
sg45
Nsg46
(lp924
(I00
I3478
tp925
asg49
Nsbsg50
I3
sg51
F3479.5
sbs(g22
g406
tp926
g0
(g32
g2
Ntp927
Rp928
(dp929
g36
F0.5
sg37
I1053
sg38
g0
(g39
g40
(dp930
I00
I1053
stp931
Rp932
(dp933
g37
I1053
sg45
Nsg46
(lp934
(I00
I1053
tp935
asg49
Nsbsg50
I3
sg51
F1054.5
sbs(g8
g568
tp936
g0
(g32
g2
Ntp937
Rp938
(dp939
g36
F0.5
sg37
I5242
sg38
g0
(g39
g40
(dp940
I01
I5242
stp941
Rp942
(dp943
g37
I5242
sg45
Nsg46
(lp944
(I01
I5242
tp945
asg49
Nsbsg50
I3
sg51
F5243.5
sbs(g20
g64
tp946
g0
(g32
g2
Ntp947
Rp948
(dp949
g36
F0.5
sg37
I1403
sg38
g0
(g39
g40
(dp950
I00
I467
sI01
I936
stp951
Rp952
(dp953
g37
I1403
sg45
Nsg46
(lp954
(I01
I936
tp955
a(I00
I467
tp956
asg49
Nsbsg50
I3
sg51
F1404.5
sbs(g16
g64
tp957
g0
(g32
g2
Ntp958
Rp959
(dp960
g36
F0.5
sg37
I1755
sg38
g0
(g39
g40
(dp961
I00
I1755
stp962
Rp963
(dp964
g37
I1755
sg45
Nsg46
(lp965
(I00
I1755
tp966
asg49
Nsbsg50
I3
sg51
F1756.5
sbs(g11
g568
tp967
g0
(g32
g2
Ntp968
Rp969
(dp970
g36
F0.5
sg37
I3164
sg38
g0
(g39
g40
(dp971
I00
I3164
stp972
Rp973
(dp974
g37
I3164
sg45
Nsg46
(lp975
(I00
I3164
tp976
asg49
Nsbsg50
I3
sg51
F3165.5
sbs(g11
g223
tp977
g0
(g32
g2
Ntp978
Rp979
(dp980
g36
F0.5
sg37
I3164
sg38
g0
(g39
g40
(dp981
I00
I3164
stp982
Rp983
(dp984
g37
I3164
sg45
Nsg46
(lp985
(I00
I3164
tp986
asg49
Nsbsg50
I3
sg51
F3165.5
sbs(g26
g365
tp987
g0
(g32
g2
Ntp988
Rp989
(dp990
g36
F0.5
sg37
I694
sg38
g0
(g39
g40
(dp991
I00
I694
stp992
Rp993
(dp994
g37
I694
sg45
Nsg46
(lp995
(I00
I694
tp996
asg49
Nsbsg50
I3
sg51
F695.5
sbs(g13
g64
tp997
g0
(g32
g2
Ntp998
Rp999
(dp1000
g36
F0.5
sg37
I2116
sg38
g0
(g39
g40
(dp1001
I00
I706
sI01
I1410
stp1002
Rp1003
(dp1004
g37
I2116
sg45
Nsg46
(lp1005
(I01
I1410
tp1006
a(I00
I706
tp1007
asg49
Nsbsg50
I3
sg51
F2117.5
sbs(g15
g406
tp1008
g0
(g32
g2
Ntp1009
Rp1010
(dp1011
g36
F0.5
sg37
I2085
sg38
g0
(g39
g40
(dp1012
I01
I2085
stp1013
Rp1014
(dp1015
g37
I2085
sg45
Nsg46
(lp1016
(I01
I2085
tp1017
asg49
Nsbsg50
I3
sg51
F2086.5
sbs(g16
g30
tp1018
g0
(g32
g2
Ntp1019
Rp1020
(dp1021
g36
F0.5
sg37
I1755
sg38
g0
(g39
g40
(dp1022
I00
I1755
stp1023
Rp1024
(dp1025
g37
I1755
sg45
Nsg46
(lp1026
(I00
I1755
tp1027
asg49
Nsbsg50
I3
sg51
F1756.5
sbs(g14
g64
tp1028
g0
(g32
g2
Ntp1029
Rp1030
(dp1031
g36
F0.5
sg37
I2091
sg38
g0
(g39
g40
(dp1032
I00
I2091
stp1033
Rp1034
(dp1035
g37
I2091
sg45
Nsg46
(lp1036
(I00
I2091
tp1037
asg49
Nsbsg50
I3
sg51
F2092.5
sbs(g14
g568
tp1038
g0
(g32
g2
Ntp1039
Rp1040
(dp1041
g36
F0.5
sg37
I2091
sg38
g0
(g39
g40
(dp1042
I00
I2091
stp1043
Rp1044
(dp1045
g37
I2091
sg45
Nsg46
(lp1046
(I00
I2091
tp1047
asg49
Nsbsg50
I3
sg51
F2092.5
sbs(g18
g30
tp1048
g0
(g32
g2
Ntp1049
Rp1050
(dp1051
g36
F0.5
sg37
I1641
sg38
g0
(g39
g40
(dp1052
I00
I1641
stp1053
Rp1054
(dp1055
g37
I1641
sg45
Nsg46
(lp1056
(I00
I1641
tp1057
asg49
Nsbsg50
I3
sg51
F1642.5
sbs(g17
g304
tp1058
g0
(g32
g2
Ntp1059
Rp1060
(dp1061
g36
F0.5
sg37
I1753
sg38
g0
(g39
g40
(dp1062
I00
I1753
stp1063
Rp1064
(dp1065
g37
I1753
sg45
Nsg46
(lp1066
(I00
I1753
tp1067
asg49
Nsbsg50
I3
sg51
F1754.5
sbs(g8
g365
tp1068
g0
(g32
g2
Ntp1069
Rp1070
(dp1071
g36
F0.5
sg37
I5242
sg38
g0
(g39
g40
(dp1072
I00
I5242
stp1073
Rp1074
(dp1075
g37
I5242
sg45
Nsg46
(lp1076
(I00
I5242
tp1077
asg49
Nsbsg50
I3
sg51
F5243.5
sbs(g18
g406
tp1078
g0
(g32
g2
Ntp1079
Rp1080
(dp1081
g36
F0.5
sg37
I1641
sg38
g0
(g39
g40
(dp1082
I00
I1641
stp1083
Rp1084
(dp1085
g37
I1641
sg45
Nsg46
(lp1086
(I00
I1641
tp1087
asg49
Nsbsg50
I3
sg51
F1642.5
sbs(g27
g406
tp1088
g0
(g32
g2
Ntp1089
Rp1090
(dp1091
g36
F0.5
sg37
I693
sg38
g0
(g39
g40
(dp1092
I00
I693
stp1093
Rp1094
(dp1095
g37
I693
sg45
Nsg46
(lp1096
(I00
I693
tp1097
asg49
Nsbsg50
I3
sg51
F694.5
sbs(g25
g30
tp1098
g0
(g32
g2
Ntp1099
Rp1100
(dp1101
g36
F0.5
sg37
I695
sg38
g0
(g39
g40
(dp1102
I00
I695
stp1103
Rp1104
(dp1105
g37
I695
sg45
Nsg46
(lp1106
(I00
I695
tp1107
asg49
Nsbsg50
I3
sg51
F696.5
sbs(g10
g86
tp1108
g0
(g32
g2
Ntp1109
Rp1110
(dp1111
g36
F0.5
sg37
I3478
sg38
g0
(g39
g40
(dp1112
I00
I3478
stp1113
Rp1114
(dp1115
g37
I3478
sg45
Nsg46
(lp1116
(I00
I3478
tp1117
asg49
Nsbsg50
I3
sg51
F3479.5
sbs(g17
g223
tp1118
g0
(g32
g2
Ntp1119
Rp1120
(dp1121
g36
F0.5
sg37
I1753
sg38
g0
(g39
g40
(dp1122
I00
I1753
stp1123
Rp1124
(dp1125
g37
I1753
sg45
Nsg46
(lp1126
(I00
I1753
tp1127
asg49
Nsbsg50
I3
sg51
F1754.5
sbs(g15
g52
tp1128
g0
(g32
g2
Ntp1129
Rp1130
(dp1131
g36
F0.5
sg37
I2085
sg38
g0
(g39
g40
(dp1132
I00
I2085
stp1133
Rp1134
(dp1135
g37
I2085
sg45
Nsg46
(lp1136
(I00
I2085
tp1137
asg49
Nsbsg50
I3
sg51
F2086.5
sbs(g22
g86
tp1138
g0
(g32
g2
Ntp1139
Rp1140
(dp1141
g36
F0.5
sg37
I1053
sg38
g0
(g39
g40
(dp1142
I00
I1053
stp1143
Rp1144
(dp1145
g37
I1053
sg45
Nsg46
(lp1146
(I00
I1053
tp1147
asg49
Nsbsg50
I3
sg51
F1054.5
sbs(g14
g129
tp1148
g0
(g32
g2
Ntp1149
Rp1150
(dp1151
g36
F0.5
sg37
I2091
sg38
g0
(g39
g40
(dp1152
I00
I2091
stp1153
Rp1154
(dp1155
g37
I2091
sg45
Nsg46
(lp1156
(I00
I2091
tp1157
asg49
Nsbsg50
I3
sg51
F2092.5
sbs(g20
g568
tp1158
g0
(g32
g2
Ntp1159
Rp1160
(dp1161
g36
F0.5
sg37
I1403
sg38
g0
(g39
g40
(dp1162
I00
I1403
stp1163
Rp1164
(dp1165
g37
I1403
sg45
Nsg46
(lp1166
(I00
I1403
tp1167
asg49
Nsbsg50
I3
sg51
F1404.5
sbs(g11
g75
tp1168
g0
(g32
g2
Ntp1169
Rp1170
(dp1171
g36
F0.5
sg37
I3164
sg38
g0
(g39
g40
(dp1172
I00
I3164
stp1173
Rp1174
(dp1175
g37
I3164
sg45
Nsg46
(lp1176
(I00
I3164
tp1177
asg49
Nsbsg50
I3
sg51
F3165.5
sbs(g12
g75
tp1178
g0
(g32
g2
Ntp1179
Rp1180
(dp1181
g36
F0.5
sg37
I2448
sg38
g0
(g39
g40
(dp1182
I00
I2448
stp1183
Rp1184
(dp1185
g37
I2448
sg45
Nsg46
(lp1186
(I00
I2448
tp1187
asg49
Nsbsg50
I3
sg51
F2449.5
sbs(g19
g118
tp1188
g0
(g32
g2
Ntp1189
Rp1190
(dp1191
g36
F0.5
sg37
I1640
sg38
g0
(g39
g40
(dp1192
I00
I1640
stp1193
Rp1194
(dp1195
g37
I1640
sg45
Nsg46
(lp1196
(I00
I1640
tp1197
asg49
Nsbsg50
I3
sg51
F1641.5
sbs(g14
g107
tp1198
g0
(g32
g2
Ntp1199
Rp1200
(dp1201
g36
F0.5
sg37
I2091
sg38
g0
(g39
g40
(dp1202
I00
I2091
stp1203
Rp1204
(dp1205
g37
I2091
sg45
Nsg46
(lp1206
(I00
I2091
tp1207
asg49
Nsbsg50
I3
sg51
F2092.5
sbs(g25
g223
tp1208
g0
(g32
g2
Ntp1209
Rp1210
(dp1211
g36
F0.5
sg37
I695
sg38
g0
(g39
g40
(dp1212
I01
I695
stp1213
Rp1214
(dp1215
g37
I695
sg45
Nsg46
(lp1216
(I01
I695
tp1217
asg49
Nsbsg50
I3
sg51
F696.5
sbs(g16
g86
tp1218
g0
(g32
g2
Ntp1219
Rp1220
(dp1221
g36
F0.5
sg37
I1755
sg38
g0
(g39
g40
(dp1222
I00
I1755
stp1223
Rp1224
(dp1225
g37
I1755
sg45
Nsg46
(lp1226
(I00
I1755
tp1227
asg49
Nsbsg50
I3
sg51
F1756.5
sbs(g25
g140
tp1228
g0
(g32
g2
Ntp1229
Rp1230
(dp1231
g36
F0.5
sg37
I695
sg38
g0
(g39
g40
(dp1232
I00
I463
sI01
I232
stp1233
Rp1234
(dp1235
g37
I695
sg45
Nsg46
(lp1236
(I00
I463
tp1237
a(I01
I232
tp1238
asg49
Nsbsg50
I3
sg51
F696.5
sbs(g9
g223
tp1239
g0
(g32
g2
Ntp1240
Rp1241
(dp1242
g36
F0.5
sg37
I4069
sg38
g0
(g39
g40
(dp1243
I00
I4069
stp1244
Rp1245
(dp1246
g37
I4069
sg45
Nsg46
(lp1247
(I00
I4069
tp1248
asg49
Nsbsg50
I3
sg51
F4070.5
sbs(g18
g86
tp1249
g0
(g32
g2
Ntp1250
Rp1251
(dp1252
g36
F0.5
sg37
I1641
sg38
g0
(g39
g40
(dp1253
I00
I1641
stp1254
Rp1255
(dp1256
g37
I1641
sg45
Nsg46
(lp1257
(I00
I1641
tp1258
asg49
Nsbsg50
I3
sg51
F1642.5
sbs(g21
g86
tp1259
g0
(g32
g2
Ntp1260
Rp1261
(dp1262
g36
F0.5
sg37
I1391
sg38
g0
(g39
g40
(dp1263
I01
I1391
stp1264
Rp1265
(dp1266
g37
I1391
sg45
Nsg46
(lp1267
(I01
I1391
tp1268
asg49
Nsbsg50
I3
sg51
F1392.5
sbs(g24
g437
tp1269
g0
(g32
g2
Ntp1270
Rp1271
(dp1272
g36
F0.5
sg37
I702
sg38
g0
(g39
g40
(dp1273
I00
I702
stp1274
Rp1275
(dp1276
g37
I702
sg45
Nsg46
(lp1277
(I00
I702
tp1278
asg49
Nsbsg50
I3
sg51
F703.5
sbs(g27
g107
tp1279
g0
(g32
g2
Ntp1280
Rp1281
(dp1282
g36
F0.5
sg37
I693
sg38
g0
(g39
g40
(dp1283
I00
I693
stp1284
Rp1285
(dp1286
g37
I693
sg45
Nsg46
(lp1287
(I00
I693
tp1288
asg49
Nsbsg50
I3
sg51
F694.5
sbs(g12
g406
tp1289
g0
(g32
g2
Ntp1290
Rp1291
(dp1292
g36
F0.5
sg37
I2448
sg38
g0
(g39
g40
(dp1293
I00
I2448
stp1294
Rp1295
(dp1296
g37
I2448
sg45
Nsg46
(lp1297
(I00
I2448
tp1298
asg49
Nsbsg50
I3
sg51
F2449.5
sbs(g14
g304
tp1299
g0
(g32
g2
Ntp1300
Rp1301
(dp1302
g36
F0.5
sg37
I2091
sg38
g0
(g39
g40
(dp1303
I00
I2091
stp1304
Rp1305
(dp1306
g37
I2091
sg45
Nsg46
(lp1307
(I00
I2091
tp1308
asg49
Nsbsg50
I3
sg51
F2092.5
sbs(g15
g223
tp1309
g0
(g32
g2
Ntp1310
Rp1311
(dp1312
g36
F0.5
sg37
I2085
sg38
g0
(g39
g40
(dp1313
I01
I2085
stp1314
Rp1315
(dp1316
g37
I2085
sg45
Nsg46
(lp1317
(I01
I2085
tp1318
asg49
Nsbsg50
I3
sg51
F2086.5
sbs(g24
g304
tp1319
g0
(g32
g2
Ntp1320
Rp1321
(dp1322
g36
F0.5
sg37
I702
sg38
g0
(g39
g40
(dp1323
I01
I702
stp1324
Rp1325
(dp1326
g37
I702
sg45
Nsg46
(lp1327
(I01
I702
tp1328
asg49
Nsbsg50
I3
sg51
F703.5
sbs(g17
g568
tp1329
g0
(g32
g2
Ntp1330
Rp1331
(dp1332
g36
F0.5
sg37
I1753
sg38
g0
(g39
g40
(dp1333
I01
I1753
stp1334
Rp1335
(dp1336
g37
I1753
sg45
Nsg46
(lp1337
(I01
I1753
tp1338
asg49
Nsbsg50
I3
sg51
F1754.5
sbs(g9
g107
tp1339
g0
(g32
g2
Ntp1340
Rp1341
(dp1342
g36
F0.5
sg37
I4069
sg38
g0
(g39
g40
(dp1343
I00
I581
sI01
I3488
stp1344
Rp1345
(dp1346
g37
I4069
sg45
Nsg46
(lp1347
(I01
I3488
tp1348
a(I00
I581
tp1349
asg49
Nsbsg50
I3
sg51
F4070.5
sbs(g21
g568
tp1350
g0
(g32
g2
Ntp1351
Rp1352
(dp1353
g36
F0.5
sg37
I1391
sg38
g0
(g39
g40
(dp1354
I00
I1391
stp1355
Rp1356
(dp1357
g37
I1391
sg45
Nsg46
(lp1358
(I00
I1391
tp1359
asg49
Nsbsg50
I3
sg51
F1392.5
sbs(g17
g140
tp1360
g0
(g32
g2
Ntp1361
Rp1362
(dp1363
g36
F0.5
sg37
I1753
sg38
g0
(g39
g40
(dp1364
I00
I1169
sI01
I584
stp1365
Rp1366
(dp1367
g37
I1753
sg45
Nsg46
(lp1368
(I00
I1169
tp1369
a(I01
I584
tp1370
asg49
Nsbsg50
I3
sg51
F1754.5
sbs(g24
g30
tp1371
g0
(g32
g2
Ntp1372
Rp1373
(dp1374
g36
F0.5
sg37
I702
sg38
g0
(g39
g40
(dp1375
I00
I702
stp1376
Rp1377
(dp1378
g37
I702
sg45
Nsg46
(lp1379
(I00
I702
tp1380
asg49
Nsbsg50
I3
sg51
F703.5
sbs(g10
g118
tp1381
g0
(g32
g2
Ntp1382
Rp1383
(dp1384
g36
F0.5
sg37
I3478
sg38
g0
(g39
g40
(dp1385
I00
I2330
sI01
I1148
stp1386
Rp1387
(dp1388
g37
I3478
sg45
Nsg46
(lp1389
(I00
I2330
tp1390
a(I01
I1148
tp1391
asg49
Nsbsg50
I3
sg51
F3479.5
sbs(g25
g129
tp1392
g0
(g32
g2
Ntp1393
Rp1394
(dp1395
g36
F0.5
sg37
I695
sg38
g0
(g39
g40
(dp1396
I00
I695
stp1397
Rp1398
(dp1399
g37
I695
sg45
Nsg46
(lp1400
(I00
I695
tp1401
asg49
Nsbsg50
I3
sg51
F696.5
sbs(g11
g30
tp1402
g0
(g32
g2
Ntp1403
Rp1404
(dp1405
g36
F0.5
sg37
I3164
sg38
g0
(g39
g40
(dp1406
I00
I1767
sI01
I1397
stp1407
Rp1408
(dp1409
g37
I3164
sg45
Nsg46
(lp1410
(I00
I1767
tp1411
a(I01
I1397
tp1412
asg49
Nsbsg50
I3
sg51
F3165.5
sbs(g20
g107
tp1413
g0
(g32
g2
Ntp1414
Rp1415
(dp1416
g36
F0.5
sg37
I1403
sg38
g0
(g39
g40
(dp1417
I00
I1403
stp1418
Rp1419
(dp1420
g37
I1403
sg45
Nsg46
(lp1421
(I00
I1403
tp1422
asg49
Nsbsg50
I3
sg51
F1404.5
sbs(g11
g437
tp1423
g0
(g32
g2
Ntp1424
Rp1425
(dp1426
g36
F0.5
sg37
I3164
sg38
g0
(g39
g40
(dp1427
I00
I2102
sI01
I1062
stp1428
Rp1429
(dp1430
g37
I3164
sg45
Nsg46
(lp1431
(I00
I2102
tp1432
a(I01
I1062
tp1433
asg49
Nsbsg50
I3
sg51
F3165.5
sbs(g26
g304
tp1434
g0
(g32
g2
Ntp1435
Rp1436
(dp1437
g36
F0.5
sg37
I694
sg38
g0
(g39
g40
(dp1438
I00
I694
stp1439
Rp1440
(dp1441
g37
I694
sg45
Nsg46
(lp1442
(I00
I694
tp1443
asg49
Nsbsg50
I3
sg51
F695.5
sbs(g20
g304
tp1444
g0
(g32
g2
Ntp1445
Rp1446
(dp1447
g36
F0.5
sg37
I1403
sg38
g0
(g39
g40
(dp1448
I00
I1403
stp1449
Rp1450
(dp1451
g37
I1403
sg45
Nsg46
(lp1452
(I00
I1403
tp1453
asg49
Nsbsg50
I3
sg51
F1404.5
sbs(g12
g86
tp1454
g0
(g32
g2
Ntp1455
Rp1456
(dp1457
g36
F0.5
sg37
I2448
sg38
g0
(g39
g40
(dp1458
I00
I2448
stp1459
Rp1460
(dp1461
g37
I2448
sg45
Nsg46
(lp1462
(I00
I2448
tp1463
asg49
Nsbsg50
I3
sg51
F2449.5
sbs(g11
g304
tp1464
g0
(g32
g2
Ntp1465
Rp1466
(dp1467
g36
F0.5
sg37
I3164
sg38
g0
(g39
g40
(dp1468
I00
I3164
stp1469
Rp1470
(dp1471
g37
I3164
sg45
Nsg46
(lp1472
(I00
I3164
tp1473
asg49
Nsbsg50
I3
sg51
F3165.5
sbs(g17
g437
tp1474
g0
(g32
g2
Ntp1475
Rp1476
(dp1477
g36
F0.5
sg37
I1753
sg38
g0
(g39
g40
(dp1478
I00
I1753
stp1479
Rp1480
(dp1481
g37
I1753
sg45
Nsg46
(lp1482
(I00
I1753
tp1483
asg49
Nsbsg50
I3
sg51
F1754.5
sbs(g27
g30
tp1484
g0
(g32
g2
Ntp1485
Rp1486
(dp1487
g36
F0.5
sg37
I693
sg38
g0
(g39
g40
(dp1488
I00
I693
stp1489
Rp1490
(dp1491
g37
I693
sg45
Nsg46
(lp1492
(I00
I693
tp1493
asg49
Nsbsg50
I3
sg51
F694.5
sbs(g18
g129
tp1494
g0
(g32
g2
Ntp1495
Rp1496
(dp1497
g36
F0.5
sg37
I1641
sg38
g0
(g39
g40
(dp1498
I00
I1170
sI01
I471
stp1499
Rp1500
(dp1501
g37
I1641
sg45
Nsg46
(lp1502
(I00
I1170
tp1503
a(I01
I471
tp1504
asg49
Nsbsg50
I3
sg51
F1642.5
sbs(g12
g568
tp1505
g0
(g32
g2
Ntp1506
Rp1507
(dp1508
g36
F0.5
sg37
I2448
sg38
g0
(g39
g40
(dp1509
I00
I2448
stp1510
Rp1511
(dp1512
g37
I2448
sg45
Nsg46
(lp1513
(I00
I2448
tp1514
asg49
Nsbsg50
I3
sg51
F2449.5
sbs(g26
g52
tp1515
g0
(g32
g2
Ntp1516
Rp1517
(dp1518
g36
F0.5
sg37
I694
sg38
g0
(g39
g40
(dp1519
I00
I694
stp1520
Rp1521
(dp1522
g37
I694
sg45
Nsg46
(lp1523
(I00
I694
tp1524
asg49
Nsbsg50
I3
sg51
F695.5
sbs(g16
g406
tp1525
g0
(g32
g2
Ntp1526
Rp1527
(dp1528
g36
F0.5
sg37
I1755
sg38
g0
(g39
g40
(dp1529
I00
I1755
stp1530
Rp1531
(dp1532
g37
I1755
sg45
Nsg46
(lp1533
(I00
I1755
tp1534
asg49
Nsbsg50
I3
sg51
F1756.5
sbs(g18
g568
tp1535
g0
(g32
g2
Ntp1536
Rp1537
(dp1538
g36
F0.5
sg37
I1641
sg38
g0
(g39
g40
(dp1539
I00
I1641
stp1540
Rp1541
(dp1542
g37
I1641
sg45
Nsg46
(lp1543
(I00
I1641
tp1544
asg49
Nsbsg50
I3
sg51
F1642.5
sbs(g16
g129
tp1545
g0
(g32
g2
Ntp1546
Rp1547
(dp1548
g36
F0.5
sg37
I1755
sg38
g0
(g39
g40
(dp1549
I00
I1755
stp1550
Rp1551
(dp1552
g37
I1755
sg45
Nsg46
(lp1553
(I00
I1755
tp1554
asg49
Nsbsg50
I3
sg51
F1756.5
sbs(g20
g30
tp1555
g0
(g32
g2
Ntp1556
Rp1557
(dp1558
g36
F0.5
sg37
I1403
sg38
g0
(g39
g40
(dp1559
I00
I1403
stp1560
Rp1561
(dp1562
g37
I1403
sg45
Nsg46
(lp1563
(I00
I1403
tp1564
asg49
Nsbsg50
I3
sg51
F1404.5
sbs(g23
g304
tp1565
g0
(g32
g2
Ntp1566
Rp1567
(dp1568
g36
F0.5
sg37
I1043
sg38
g0
(g39
g40
(dp1569
I01
I1043
stp1570
Rp1571
(dp1572
g37
I1043
sg45
Nsg46
(lp1573
(I01
I1043
tp1574
asg49
Nsbsg50
I3
sg51
F1044.5
sbs(g14
g406
tp1575
g0
(g32
g2
Ntp1576
Rp1577
(dp1578
g36
F0.5
sg37
I2091
sg38
g0
(g39
g40
(dp1579
I01
I2091
stp1580
Rp1581
(dp1582
g37
I2091
sg45
Nsg46
(lp1583
(I01
I2091
tp1584
asg49
Nsbsg50
I3
sg51
F2092.5
sbs(g17
g118
tp1585
g0
(g32
g2
Ntp1586
Rp1587
(dp1588
g36
F0.5
sg37
I1753
sg38
g0
(g39
g40
(dp1589
I00
I1753
stp1590
Rp1591
(dp1592
g37
I1753
sg45
Nsg46
(lp1593
(I00
I1753
tp1594
asg49
Nsbsg50
I3
sg51
F1754.5
sbs(g16
g568
tp1595
g0
(g32
g2
Ntp1596
Rp1597
(dp1598
g36
F0.5
sg37
I1755
sg38
g0
(g39
g40
(dp1599
I01
I1755
stp1600
Rp1601
(dp1602
g37
I1755
sg45
Nsg46
(lp1603
(I01
I1755
tp1604
asg49
Nsbsg50
I3
sg51
F1756.5
sbs(g23
g86
tp1605
g0
(g32
g2
Ntp1606
Rp1607
(dp1608
g36
F0.5
sg37
I1043
sg38
g0
(g39
g40
(dp1609
I00
I1043
stp1610
Rp1611
(dp1612
g37
I1043
sg45
Nsg46
(lp1613
(I00
I1043
tp1614
asg49
Nsbsg50
I3
sg51
F1044.5
sbs(g22
g107
tp1615
g0
(g32
g2
Ntp1616
Rp1617
(dp1618
g36
F0.5
sg37
I1053
sg38
g0
(g39
g40
(dp1619
I00
I1053
stp1620
Rp1621
(dp1622
g37
I1053
sg45
Nsg46
(lp1623
(I00
I1053
tp1624
asg49
Nsbsg50
I3
sg51
F1054.5
sbs(g23
g52
tp1625
g0
(g32
g2
Ntp1626
Rp1627
(dp1628
g36
F0.5
sg37
I1043
sg38
g0
(g39
g40
(dp1629
I00
I1043
stp1630
Rp1631
(dp1632
g37
I1043
sg45
Nsg46
(lp1633
(I00
I1043
tp1634
asg49
Nsbsg50
I3
sg51
F1044.5
sbs(g10
g223
tp1635
g0
(g32
g2
Ntp1636
Rp1637
(dp1638
g36
F0.5
sg37
I3478
sg38
g0
(g39
g40
(dp1639
I00
I3478
stp1640
Rp1641
(dp1642
g37
I3478
sg45
Nsg46
(lp1643
(I00
I3478
tp1644
asg49
Nsbsg50
I3
sg51
F3479.5
sbs(g9
g406
tp1645
g0
(g32
g2
Ntp1646
Rp1647
(dp1648
g36
F0.5
sg37
I4069
sg38
g0
(g39
g40
(dp1649
I01
I4069
stp1650
Rp1651
(dp1652
g37
I4069
sg45
Nsg46
(lp1653
(I01
I4069
tp1654
asg49
Nsbsg50
I3
sg51
F4070.5
sbs(g12
g304
tp1655
g0
(g32
g2
Ntp1656
Rp1657
(dp1658
g36
F0.5
sg37
I2448
sg38
g0
(g39
g40
(dp1659
I00
I2448
stp1660
Rp1661
(dp1662
g37
I2448
sg45
Nsg46
(lp1663
(I00
I2448
tp1664
asg49
Nsbsg50
I3
sg51
F2449.5
sbs(g24
g568
tp1665
g0
(g32
g2
Ntp1666
Rp1667
(dp1668
g36
F0.5
sg37
I702
sg38
g0
(g39
g40
(dp1669
I00
I702
stp1670
Rp1671
(dp1672
g37
I702
sg45
Nsg46
(lp1673
(I00
I702
tp1674
asg49
Nsbsg50
I3
sg51
F703.5
sbs(g26
g86
tp1675
g0
(g32
g2
Ntp1676
Rp1677
(dp1678
g36
F0.5
sg37
I694
sg38
g0
(g39
g40
(dp1679
I01
I694
stp1680
Rp1681
(dp1682
g37
I694
sg45
Nsg46
(lp1683
(I01
I694
tp1684
asg49
Nsbsg50
I3
sg51
F695.5
sbs(g23
g365
tp1685
g0
(g32
g2
Ntp1686
Rp1687
(dp1688
g36
F0.5
sg37
I1043
sg38
g0
(g39
g40
(dp1689
I00
I1043
stp1690
Rp1691
(dp1692
g37
I1043
sg45
Nsg46
(lp1693
(I00
I1043
tp1694
asg49
Nsbsg50
I3
sg51
F1044.5
sbs(g21
g304
tp1695
g0
(g32
g2
Ntp1696
Rp1697
(dp1698
g36
F0.5
sg37
I1391
sg38
g0
(g39
g40
(dp1699
I00
I1391
stp1700
Rp1701
(dp1702
g37
I1391
sg45
Nsg46
(lp1703
(I00
I1391
tp1704
asg49
Nsbsg50
I3
sg51
F1392.5
sbs(g25
g75
tp1705
g0
(g32
g2
Ntp1706
Rp1707
(dp1708
g36
F0.5
sg37
I695
sg38
g0
(g39
g40
(dp1709
I00
I232
sI01
I463
stp1710
Rp1711
(dp1712
g37
I695
sg45
Nsg46
(lp1713
(I01
I463
tp1714
a(I00
I232
tp1715
asg49
Nsbsg50
I3
sg51
F696.5
sbs(g15
g365
tp1716
g0
(g32
g2
Ntp1717
Rp1718
(dp1719
g36
F0.5
sg37
I2085
sg38
g0
(g39
g40
(dp1720
I00
I2085
stp1721
Rp1722
(dp1723
g37
I2085
sg45
Nsg46
(lp1724
(I00
I2085
tp1725
asg49
Nsbsg50
I3
sg51
F2086.5
sbs(g12
g52
tp1726
g0
(g32
g2
Ntp1727
Rp1728
(dp1729
g36
F0.5
sg37
I2448
sg38
g0
(g39
g40
(dp1730
I00
I2448
stp1731
Rp1732
(dp1733
g37
I2448
sg45
Nsg46
(lp1734
(I00
I2448
tp1735
asg49
Nsbsg50
I3
sg51
F2449.5
sbs(g11
g86
tp1736
g0
(g32
g2
Ntp1737
Rp1738
(dp1739
g36
F0.5
sg37
I3164
sg38
g0
(g39
g40
(dp1740
I00
I3164
stp1741
Rp1742
(dp1743
g37
I3164
sg45
Nsg46
(lp1744
(I00
I3164
tp1745
asg49
Nsbsg50
I3
sg51
F3165.5
sbs(g21
g406
tp1746
g0
(g32
g2
Ntp1747
Rp1748
(dp1749
g36
F0.5
sg37
I1391
sg38
g0
(g39
g40
(dp1750
I00
I1391
stp1751
Rp1752
(dp1753
g37
I1391
sg45
Nsg46
(lp1754
(I00
I1391
tp1755
asg49
Nsbsg50
I3
sg51
F1392.5
sbs(g27
g118
tp1756
g0
(g32
g2
Ntp1757
Rp1758
(dp1759
g36
F0.5
sg37
I693
sg38
g0
(g39
g40
(dp1760
I00
I693
stp1761
Rp1762
(dp1763
g37
I693
sg45
Nsg46
(lp1764
(I00
I693
tp1765
asg49
Nsbsg50
I3
sg51
F694.5
sbs(g16
g223
tp1766
g0
(g32
g2
Ntp1767
Rp1768
(dp1769
g36
F0.5
sg37
I1755
sg38
g0
(g39
g40
(dp1770
I00
I1755
stp1771
Rp1772
(dp1773
g37
I1755
sg45
Nsg46
(lp1774
(I00
I1755
tp1775
asg49
Nsbsg50
I3
sg51
F1756.5
sbs(g24
g365
tp1776
g0
(g32
g2
Ntp1777
Rp1778
(dp1779
g36
F0.5
sg37
I702
sg38
g0
(g39
g40
(dp1780
I00
I702
stp1781
Rp1782
(dp1783
g37
I702
sg45
Nsg46
(lp1784
(I00
I702
tp1785
asg49
Nsbsg50
I3
sg51
F703.5
sbs(g24
g406
tp1786
g0
(g32
g2
Ntp1787
Rp1788
(dp1789
g36
F0.5
sg37
I702
sg38
g0
(g39
g40
(dp1790
I00
I702
stp1791
Rp1792
(dp1793
g37
I702
sg45
Nsg46
(lp1794
(I00
I702
tp1795
asg49
Nsbsg50
I3
sg51
F703.5
sbs(g19
g437
tp1796
g0
(g32
g2
Ntp1797
Rp1798
(dp1799
g36
F0.5
sg37
I1640
sg38
g0
(g39
g40
(dp1800
I00
I1640
stp1801
Rp1802
(dp1803
g37
I1640
sg45
Nsg46
(lp1804
(I00
I1640
tp1805
asg49
Nsbsg50
I3
sg51
F1641.5
sbs(g17
g52
tp1806
g0
(g32
g2
Ntp1807
Rp1808
(dp1809
g36
F0.5
sg37
I1753
sg38
g0
(g39
g40
(dp1810
I00
I699
sI01
I1054
stp1811
Rp1812
(dp1813
g37
I1753
sg45
Nsg46
(lp1814
(I01
I1054
tp1815
a(I00
I699
tp1816
asg49
Nsbsg50
I3
sg51
F1754.5
sbs(g10
g64
tp1817
g0
(g32
g2
Ntp1818
Rp1819
(dp1820
g36
F0.5
sg37
I3478
sg38
g0
(g39
g40
(dp1821
I00
I1148
sI01
I2330
stp1822
Rp1823
(dp1824
g37
I3478
sg45
Nsg46
(lp1825
(I01
I2330
tp1826
a(I00
I1148
tp1827
asg49
Nsbsg50
I3
sg51
F3479.5
sbs(g26
g568
tp1828
g0
(g32
g2
Ntp1829
Rp1830
(dp1831
g36
F0.5
sg37
I694
sg38
g0
(g39
g40
(dp1832
I00
I694
stp1833
Rp1834
(dp1835
g37
I694
sg45
Nsg46
(lp1836
(I00
I694
tp1837
asg49
Nsbsg50
I3
sg51
F695.5
sbs(g8
g437
tp1838
g0
(g32
g2
Ntp1839
Rp1840
(dp1841
g36
F0.5
sg37
I5242
sg38
g0
(g39
g40
(dp1842
I00
I5242
stp1843
Rp1844
(dp1845
g37
I5242
sg45
Nsg46
(lp1846
(I00
I5242
tp1847
asg49
Nsbsg50
I3
sg51
F5243.5
sbs(g24
g118
tp1848
g0
(g32
g2
Ntp1849
Rp1850
(dp1851
g36
F0.5
sg37
I702
sg38
g0
(g39
g40
(dp1852
I00
I702
stp1853
Rp1854
(dp1855
g37
I702
sg45
Nsg46
(lp1856
(I00
I702
tp1857
asg49
Nsbsg50
I3
sg51
F703.5
sbs(g22
g64
tp1858
g0
(g32
g2
Ntp1859
Rp1860
(dp1861
g36
F0.5
sg37
I1053
sg38
g0
(g39
g40
(dp1862
I00
I1053
stp1863
Rp1864
(dp1865
g37
I1053
sg45
Nsg46
(lp1866
(I00
I1053
tp1867
asg49
Nsbsg50
I3
sg51
F1054.5
sbs(g24
g52
tp1868
g0
(g32
g2
Ntp1869
Rp1870
(dp1871
g36
F0.5
sg37
I702
sg38
g0
(g39
g40
(dp1872
I00
I702
stp1873
Rp1874
(dp1875
g37
I702
sg45
Nsg46
(lp1876
(I00
I702
tp1877
asg49
Nsbsg50
I3
sg51
F703.5
sbs(g18
g304
tp1878
g0
(g32
g2
Ntp1879
Rp1880
(dp1881
g36
F0.5
sg37
I1641
sg38
g0
(g39
g40
(dp1882
I00
I1641
stp1883
Rp1884
(dp1885
g37
I1641
sg45
Nsg46
(lp1886
(I00
I1641
tp1887
asg49
Nsbsg50
I3
sg51
F1642.5
sbs(g8
g30
tp1888
g0
(g32
g2
Ntp1889
Rp1890
(dp1891
g36
F0.5
sg37
I5242
sg38
g0
(g39
g40
(dp1892
I00
I2917
sI01
I2325
stp1893
Rp1894
(dp1895
g37
I5242
sg45
Nsg46
(lp1896
(I00
I2917
tp1897
a(I01
I2325
tp1898
asg49
Nsbsg50
I3
sg51
F5243.5
sbs(g23
g568
tp1899
g0
(g32
g2
Ntp1900
Rp1901
(dp1902
g36
F0.5
sg37
I1043
sg38
g0
(g39
g40
(dp1903
I00
I1043
stp1904
Rp1905
(dp1906
g37
I1043
sg45
Nsg46
(lp1907
(I00
I1043
tp1908
asg49
Nsbsg50
I3
sg51
F1044.5
sbs(g19
g107
tp1909
g0
(g32
g2
Ntp1910
Rp1911
(dp1912
g36
F0.5
sg37
I1640
sg38
g0
(g39
g40
(dp1913
I00
I236
sI01
I1404
stp1914
Rp1915
(dp1916
g37
I1640
sg45
Nsg46
(lp1917
(I01
I1404
tp1918
a(I00
I236
tp1919
asg49
Nsbsg50
I3
sg51
F1641.5
sbs(g11
g365
tp1920
g0
(g32
g2
Ntp1921
Rp1922
(dp1923
g36
F0.5
sg37
I3164
sg38
g0
(g39
g40
(dp1924
I00
I3164
stp1925
Rp1926
(dp1927
g37
I3164
sg45
Nsg46
(lp1928
(I00
I3164
tp1929
asg49
Nsbsg50
I3
sg51
F3165.5
sbs(g13
g140
tp1930
g0
(g32
g2
Ntp1931
Rp1932
(dp1933
g36
F0.5
sg37
I2116
sg38
g0
(g39
g40
(dp1934
I00
I2116
stp1935
Rp1936
(dp1937
g37
I2116
sg45
Nsg46
(lp1938
(I00
I2116
tp1939
asg49
Nsbsg50
I3
sg51
F2117.5
sbs(g11
g107
tp1940
g0
(g32
g2
Ntp1941
Rp1942
(dp1943
g36
F0.5
sg37
I3164
sg38
g0
(g39
g40
(dp1944
I00
I3164
stp1945
Rp1946
(dp1947
g37
I3164
sg45
Nsg46
(lp1948
(I00
I3164
tp1949
asg49
Nsbsg50
I3
sg51
F3165.5
sbs(g19
g64
tp1950
g0
(g32
g2
Ntp1951
Rp1952
(dp1953
g36
F0.5
sg37
I1640
sg38
g0
(g39
g40
(dp1954
I00
I1640
stp1955
Rp1956
(dp1957
g37
I1640
sg45
Nsg46
(lp1958
(I00
I1640
tp1959
asg49
Nsbsg50
I3
sg51
F1641.5
sbs(g20
g86
tp1960
g0
(g32
g2
Ntp1961
Rp1962
(dp1963
g36
F0.5
sg37
I1403
sg38
g0
(g39
g40
(dp1964
I00
I1403
stp1965
Rp1966
(dp1967
g37
I1403
sg45
Nsg46
(lp1968
(I00
I1403
tp1969
asg49
Nsbsg50
I3
sg51
F1404.5
sbs(g26
g406
tp1970
g0
(g32
g2
Ntp1971
Rp1972
(dp1973
g36
F0.5
sg37
I694
sg38
g0
(g39
g40
(dp1974
I00
I694
stp1975
Rp1976
(dp1977
g37
I694
sg45
Nsg46
(lp1978
(I00
I694
tp1979
asg49
Nsbsg50
I3
sg51
F695.5
sbs(g22
g304
tp1980
g0
(g32
g2
Ntp1981
Rp1982
(dp1983
g36
F0.5
sg37
I1053
sg38
g0
(g39
g40
(dp1984
I00
I1053
stp1985
Rp1986
(dp1987
g37
I1053
sg45
Nsg46
(lp1988
(I00
I1053
tp1989
asg49
Nsbsg50
I3
sg51
F1054.5
sbs(g21
g75
tp1990
g0
(g32
g2
Ntp1991
Rp1992
(dp1993
g36
F0.5
sg37
I1391
sg38
g0
(g39
g40
(dp1994
I00
I1391
stp1995
Rp1996
(dp1997
g37
I1391
sg45
Nsg46
(lp1998
(I00
I1391
tp1999
asg49
Nsbsg50
I3
sg51
F1392.5
sbs(g19
g129
tp2000
g0
(g32
g2
Ntp2001
Rp2002
(dp2003
g36
F0.5
sg37
I1640
sg38
g0
(g39
g40
(dp2004
I00
I1176
sI01
I464
stp2005
Rp2006
(dp2007
g37
I1640
sg45
Nsg46
(lp2008
(I00
I1176
tp2009
a(I01
I464
tp2010
asg49
Nsbsg50
I3
sg51
F1641.5
sbs(g14
g365
tp2011
g0
(g32
g2
Ntp2012
Rp2013
(dp2014
g36
F0.5
sg37
I2091
sg38
g0
(g39
g40
(dp2015
I00
I2091
stp2016
Rp2017
(dp2018
g37
I2091
sg45
Nsg46
(lp2019
(I00
I2091
tp2020
asg49
Nsbsg50
I3
sg51
F2092.5
sbs(g23
g437
tp2021
g0
(g32
g2
Ntp2022
Rp2023
(dp2024
g36
F0.5
sg37
I1043
sg38
g0
(g39
g40
(dp2025
I00
I704
sI01
I339
stp2026
Rp2027
(dp2028
g37
I1043
sg45
Nsg46
(lp2029
(I00
I704
tp2030
a(I01
I339
tp2031
asg49
Nsbsg50
I3
sg51
F1044.5
sbs(g10
g304
tp2032
g0
(g32
g2
Ntp2033
Rp2034
(dp2035
g36
F0.5
sg37
I3478
sg38
g0
(g39
g40
(dp2036
I00
I3478
stp2037
Rp2038
(dp2039
g37
I3478
sg45
Nsg46
(lp2040
(I00
I3478
tp2041
asg49
Nsbsg50
I3
sg51
F3479.5
sbs(g21
g30
tp2042
g0
(g32
g2
Ntp2043
Rp2044
(dp2045
g36
F0.5
sg37
I1391
sg38
g0
(g39
g40
(dp2046
I00
I1391
stp2047
Rp2048
(dp2049
g37
I1391
sg45
Nsg46
(lp2050
(I00
I1391
tp2051
asg49
Nsbsg50
I3
sg51
F1392.5
sbs(g19
g30
tp2052
g0
(g32
g2
Ntp2053
Rp2054
(dp2055
g36
F0.5
sg37
I1640
sg38
g0
(g39
g40
(dp2056
I00
I1640
stp2057
Rp2058
(dp2059
g37
I1640
sg45
Nsg46
(lp2060
(I00
I1640
tp2061
asg49
Nsbsg50
I3
sg51
F1641.5
sbs(g22
g52
tp2062
g0
(g32
g2
Ntp2063
Rp2064
(dp2065
g36
F0.5
sg37
I1053
sg38
g0
(g39
g40
(dp2066
I00
I1053
stp2067
Rp2068
(dp2069
g37
I1053
sg45
Nsg46
(lp2070
(I00
I1053
tp2071
asg49
Nsbsg50
I3
sg51
F1054.5
sbs(g9
g30
tp2072
g0
(g32
g2
Ntp2073
Rp2074
(dp2075
g36
F0.5
sg37
I4069
sg38
g0
(g39
g40
(dp2076
I00
I4069
stp2077
Rp2078
(dp2079
g37
I4069
sg45
Nsg46
(lp2080
(I00
I4069
tp2081
asg49
Nsbsg50
I3
sg51
F4070.5
sbs(g17
g86
tp2082
g0
(g32
g2
Ntp2083
Rp2084
(dp2085
g36
F0.5
sg37
I1753
sg38
g0
(g39
g40
(dp2086
I00
I1753
stp2087
Rp2088
(dp2089
g37
I1753
sg45
Nsg46
(lp2090
(I00
I1753
tp2091
asg49
Nsbsg50
I3
sg51
F1754.5
sbs(g22
g365
tp2092
g0
(g32
g2
Ntp2093
Rp2094
(dp2095
g36
F0.5
sg37
I1053
sg38
g0
(g39
g40
(dp2096
I00
I1053
stp2097
Rp2098
(dp2099
g37
I1053
sg45
Nsg46
(lp2100
(I00
I1053
tp2101
asg49
Nsbsg50
I3
sg51
F1054.5
sbs(g9
g140
tp2102
g0
(g32
g2
Ntp2103
Rp2104
(dp2105
g36
F0.5
sg37
I4069
sg38
g0
(g39
g40
(dp2106
I00
I4069
stp2107
Rp2108
(dp2109
g37
I4069
sg45
Nsg46
(lp2110
(I00
I4069
tp2111
asg49
Nsbsg50
I3
sg51
F4070.5
sbs(g27
g223
tp2112
g0
(g32
g2
Ntp2113
Rp2114
(dp2115
g36
F0.5
sg37
I693
sg38
g0
(g39
g40
(dp2116
I00
I693
stp2117
Rp2118
(dp2119
g37
I693
sg45
Nsg46
(lp2120
(I00
I693
tp2121
asg49
Nsbsg50
I3
sg51
F694.5
sbs(g14
g86
tp2122
g0
(g32
g2
Ntp2123
Rp2124
(dp2125
g36
F0.5
sg37
I2091
sg38
g0
(g39
g40
(dp2126
I01
I2091
stp2127
Rp2128
(dp2129
g37
I2091
sg45
Nsg46
(lp2130
(I01
I2091
tp2131
asg49
Nsbsg50
I3
sg51
F2092.5
sbs(g10
g365
tp2132
g0
(g32
g2
Ntp2133
Rp2134
(dp2135
g36
F0.5
sg37
I3478
sg38
g0
(g39
g40
(dp2136
I00
I3478
stp2137
Rp2138
(dp2139
g37
I3478
sg45
Nsg46
(lp2140
(I00
I3478
tp2141
asg49
Nsbsg50
I3
sg51
F3479.5
sbs(g21
g64
tp2142
g0
(g32
g2
Ntp2143
Rp2144
(dp2145
g36
F0.5
sg37
I1391
sg38
g0
(g39
g40
(dp2146
I00
I464
sI01
I927
stp2147
Rp2148
(dp2149
g37
I1391
sg45
Nsg46
(lp2150
(I01
I927
tp2151
a(I00
I464
tp2152
asg49
Nsbsg50
I3
sg51
F1392.5
sbs(g22
g75
tp2153
g0
(g32
g2
Ntp2154
Rp2155
(dp2156
g36
F0.5
sg37
I1053
sg38
g0
(g39
g40
(dp2157
I00
I357
sI01
I696
stp2158
Rp2159
(dp2160
g37
I1053
sg45
Nsg46
(lp2161
(I01
I696
tp2162
a(I00
I357
tp2163
asg49
Nsbsg50
I3
sg51
F1054.5
sbs(g8
g129
tp2164
g0
(g32
g2
Ntp2165
Rp2166
(dp2167
g36
F0.5
sg37
I5242
sg38
g0
(g39
g40
(dp2168
I00
I5242
stp2169
Rp2170
(dp2171
g37
I5242
sg45
Nsg46
(lp2172
(I00
I5242
tp2173
asg49
Nsbsg50
I3
sg51
F5243.5
sbs(g12
g64
tp2174
g0
(g32
g2
Ntp2175
Rp2176
(dp2177
g36
F0.5
sg37
I2448
sg38
g0
(g39
g40
(dp2178
I00
I2448
stp2179
Rp2180
(dp2181
g37
I2448
sg45
Nsg46
(lp2182
(I00
I2448
tp2183
asg49
Nsbsg50
I3
sg51
F2449.5
sbs(g19
g140
tp2184
g0
(g32
g2
Ntp2185
Rp2186
(dp2187
g36
F0.5
sg37
I1640
sg38
g0
(g39
g40
(dp2188
I00
I1640
stp2189
Rp2190
(dp2191
g37
I1640
sg45
Nsg46
(lp2192
(I00
I1640
tp2193
asg49
Nsbsg50
I3
sg51
F1641.5
sbs(g26
g107
tp2194
g0
(g32
g2
Ntp2195
Rp2196
(dp2197
g36
F0.5
sg37
I694
sg38
g0
(g39
g40
(dp2198
I00
I694
stp2199
Rp2200
(dp2201
g37
I694
sg45
Nsg46
(lp2202
(I00
I694
tp2203
asg49
Nsbsg50
I3
sg51
F695.5
sbs(g15
g437
tp2204
g0
(g32
g2
Ntp2205
Rp2206
(dp2207
g36
F0.5
sg37
I2085
sg38
g0
(g39
g40
(dp2208
I00
I2085
stp2209
Rp2210
(dp2211
g37
I2085
sg45
Nsg46
(lp2212
(I00
I2085
tp2213
asg49
Nsbsg50
I3
sg51
F2086.5
sbs(g27
g437
tp2214
g0
(g32
g2
Ntp2215
Rp2216
(dp2217
g36
F0.5
sg37
I693
sg38
g0
(g39
g40
(dp2218
I00
I693
stp2219
Rp2220
(dp2221
g37
I693
sg45
Nsg46
(lp2222
(I00
I693
tp2223
asg49
Nsbsg50
I3
sg51
F694.5
sbs(g20
g75
tp2224
g0
(g32
g2
Ntp2225
Rp2226
(dp2227
g36
F0.5
sg37
I1403
sg38
g0
(g39
g40
(dp2228
I00
I1403
stp2229
Rp2230
(dp2231
g37
I1403
sg45
Nsg46
(lp2232
(I00
I1403
tp2233
asg49
Nsbsg50
I3
sg51
F1404.5
sbs(g15
g140
tp2234
g0
(g32
g2
Ntp2235
Rp2236
(dp2237
g36
F0.5
sg37
I2085
sg38
g0
(g39
g40
(dp2238
I00
I2085
stp2239
Rp2240
(dp2241
g37
I2085
sg45
Nsg46
(lp2242
(I00
I2085
tp2243
asg49
Nsbsg50
I3
sg51
F2086.5
sbs(g17
g406
tp2244
g0
(g32
g2
Ntp2245
Rp2246
(dp2247
g36
F0.5
sg37
I1753
sg38
g0
(g39
g40
(dp2248
I00
I1753
stp2249
Rp2250
(dp2251
g37
I1753
sg45
Nsg46
(lp2252
(I00
I1753
tp2253
asg49
Nsbsg50
I3
sg51
F1754.5
sbs(g25
g118
tp2254
g0
(g32
g2
Ntp2255
Rp2256
(dp2257
g36
F0.5
sg37
I695
sg38
g0
(g39
g40
(dp2258
I00
I695
stp2259
Rp2260
(dp2261
g37
I695
sg45
Nsg46
(lp2262
(I00
I695
tp2263
asg49
Nsbsg50
I3
sg51
F696.5
sbs(g10
g568
tp2264
g0
(g32
g2
Ntp2265
Rp2266
(dp2267
g36
F0.5
sg37
I3478
sg38
g0
(g39
g40
(dp2268
I01
I3478
stp2269
Rp2270
(dp2271
g37
I3478
sg45
Nsg46
(lp2272
(I01
I3478
tp2273
asg49
Nsbsg50
I3
sg51
F3479.5
sbs(g23
g406
tp2274
g0
(g32
g2
Ntp2275
Rp2276
(dp2277
g36
F0.5
sg37
I1043
sg38
g0
(g39
g40
(dp2278
I00
I1043
stp2279
Rp2280
(dp2281
g37
I1043
sg45
Nsg46
(lp2282
(I00
I1043
tp2283
asg49
Nsbsg50
I3
sg51
F1044.5
sbs(g20
g406
tp2284
g0
(g32
g2
Ntp2285
Rp2286
(dp2287
g36
F0.5
sg37
I1403
sg38
g0
(g39
g40
(dp2288
I00
I1403
stp2289
Rp2290
(dp2291
g37
I1403
sg45
Nsg46
(lp2292
(I00
I1403
tp2293
asg49
Nsbsg50
I3
sg51
F1404.5
sbs(g13
g30
tp2294
g0
(g32
g2
Ntp2295
Rp2296
(dp2297
g36
F0.5
sg37
I2116
sg38
g0
(g39
g40
(dp2298
I00
I2116
stp2299
Rp2300
(dp2301
g37
I2116
sg45
Nsg46
(lp2302
(I00
I2116
tp2303
asg49
Nsbsg50
I3
sg51
F2117.5
sbs(g22
g568
tp2304
g0
(g32
g2
Ntp2305
Rp2306
(dp2307
g36
F0.5
sg37
I1053
sg38
g0
(g39
g40
(dp2308
I00
I1053
stp2309
Rp2310
(dp2311
g37
I1053
sg45
Nsg46
(lp2312
(I00
I1053
tp2313
asg49
Nsbsg50
I3
sg51
F1054.5
sbs(g19
g223
tp2314
g0
(g32
g2
Ntp2315
Rp2316
(dp2317
g36
F0.5
sg37
I1640
sg38
g0
(g39
g40
(dp2318
I00
I1640
stp2319
Rp2320
(dp2321
g37
I1640
sg45
Nsg46
(lp2322
(I00
I1640
tp2323
asg49
Nsbsg50
I3
sg51
F1641.5
sbs(g24
g223
tp2324
g0
(g32
g2
Ntp2325
Rp2326
(dp2327
g36
F0.5
sg37
I702
sg38
g0
(g39
g40
(dp2328
I01
I702
stp2329
Rp2330
(dp2331
g37
I702
sg45
Nsg46
(lp2332
(I01
I702
tp2333
asg49
Nsbsg50
I3
sg51
F703.5
sbs(g9
g365
tp2334
g0
(g32
g2
Ntp2335
Rp2336
(dp2337
g36
F0.5
sg37
I4069
sg38
g0
(g39
g40
(dp2338
I00
I2324
sI01
I1745
stp2339
Rp2340
(dp2341
g37
I4069
sg45
Nsg46
(lp2342
(I00
I2324
tp2343
a(I01
I1745
tp2344
asg49
Nsbsg50
I3
sg51
F4070.5
sbs(g27
g568
tp2345
g0
(g32
g2
Ntp2346
Rp2347
(dp2348
g36
F0.5
sg37
I693
sg38
g0
(g39
g40
(dp2349
I00
I693
stp2350
Rp2351
(dp2352
g37
I693
sg45
Nsg46
(lp2353
(I00
I693
tp2354
asg49
Nsbsg50
I3
sg51
F694.5
sbs(g8
g140
tp2355
g0
(g32
g2
Ntp2356
Rp2357
(dp2358
g36
F0.5
sg37
I5242
sg38
g0
(g39
g40
(dp2359
I00
I5242
stp2360
Rp2361
(dp2362
g37
I5242
sg45
Nsg46
(lp2363
(I00
I5242
tp2364
asg49
Nsbsg50
I3
sg51
F5243.5
sbs(g8
g223
tp2365
g0
(g32
g2
Ntp2366
Rp2367
(dp2368
g36
F0.5
sg37
I5242
sg38
g0
(g39
g40
(dp2369
I00
I5242
stp2370
Rp2371
(dp2372
g37
I5242
sg45
Nsg46
(lp2373
(I00
I5242
tp2374
asg49
Nsbsg50
I3
sg51
F5243.5
sbs(g19
g52
tp2375
g0
(g32
g2
Ntp2376
Rp2377
(dp2378
g36
F0.5
sg37
I1640
sg38
g0
(g39
g40
(dp2379
I00
I1640
stp2380
Rp2381
(dp2382
g37
I1640
sg45
Nsg46
(lp2383
(I00
I1640
tp2384
asg49
Nsbsg50
I3
sg51
F1641.5
sbs(g18
g64
tp2385
g0
(g32
g2
Ntp2386
Rp2387
(dp2388
g36
F0.5
sg37
I1641
sg38
g0
(g39
g40
(dp2389
I00
I1641
stp2390
Rp2391
(dp2392
g37
I1641
sg45
Nsg46
(lp2393
(I00
I1641
tp2394
asg49
Nsbsg50
I3
sg51
F1642.5
sbs(g17
g107
tp2395
g0
(g32
g2
Ntp2396
Rp2397
(dp2398
g36
F0.5
sg37
I1753
sg38
g0
(g39
g40
(dp2399
I00
I1753
stp2400
Rp2401
(dp2402
g37
I1753
sg45
Nsg46
(lp2403
(I00
I1753
tp2404
asg49
Nsbsg50
I3
sg51
F1754.5
sbs(g9
g118
tp2405
g0
(g32
g2
Ntp2406
Rp2407
(dp2408
g36
F0.5
sg37
I4069
sg38
g0
(g39
g40
(dp2409
I00
I4069
stp2410
Rp2411
(dp2412
g37
I4069
sg45
Nsg46
(lp2413
(I00
I4069
tp2414
asg49
Nsbsg50
I3
sg51
F4070.5
sbs(g15
g129
tp2415
g0
(g32
g2
Ntp2416
Rp2417
(dp2418
g36
F0.5
sg37
I2085
sg38
g0
(g39
g40
(dp2419
I00
I2085
stp2420
Rp2421
(dp2422
g37
I2085
sg45
Nsg46
(lp2423
(I00
I2085
tp2424
asg49
Nsbsg50
I3
sg51
F2086.5
sbs(g23
g75
tp2425
g0
(g32
g2
Ntp2426
Rp2427
(dp2428
g36
F0.5
sg37
I1043
sg38
g0
(g39
g40
(dp2429
I00
I1043
stp2430
Rp2431
(dp2432
g37
I1043
sg45
Nsg46
(lp2433
(I00
I1043
tp2434
asg49
Nsbsg50
I3
sg51
F1044.5
sbs(g16
g365
tp2435
g0
(g32
g2
Ntp2436
Rp2437
(dp2438
g36
F0.5
sg37
I1755
sg38
g0
(g39
g40
(dp2439
I00
I1755
stp2440
Rp2441
(dp2442
g37
I1755
sg45
Nsg46
(lp2443
(I00
I1755
tp2444
asg49
Nsbsg50
I3
sg51
F1756.5
sbs(g17
g75
tp2445
g0
(g32
g2
Ntp2446
Rp2447
(dp2448
g36
F0.5
sg37
I1753
sg38
g0
(g39
g40
(dp2449
I00
I584
sI01
I1169
stp2450
Rp2451
(dp2452
g37
I1753
sg45
Nsg46
(lp2453
(I01
I1169
tp2454
a(I00
I584
tp2455
asg49
Nsbsg50
I3
sg51
F1754.5
sbs(g22
g437
tp2456
g0
(g32
g2
Ntp2457
Rp2458
(dp2459
g36
F0.5
sg37
I1053
sg38
g0
(g39
g40
(dp2460
I00
I703
sI01
I350
stp2461
Rp2462
(dp2463
g37
I1053
sg45
Nsg46
(lp2464
(I00
I703
tp2465
a(I01
I350
tp2466
asg49
Nsbsg50
I3
sg51
F1054.5
sbs(g27
g64
tp2467
g0
(g32
g2
Ntp2468
Rp2469
(dp2470
g36
F0.5
sg37
I693
sg38
g0
(g39
g40
(dp2471
I00
I693
stp2472
Rp2473
(dp2474
g37
I693
sg45
Nsg46
(lp2475
(I00
I693
tp2476
asg49
Nsbsg50
I3
sg51
F694.5
sbs(g16
g304
tp2477
g0
(g32
g2
Ntp2478
Rp2479
(dp2480
g36
F0.5
sg37
I1755
sg38
g0
(g39
g40
(dp2481
I01
I1755
stp2482
Rp2483
(dp2484
g37
I1755
sg45
Nsg46
(lp2485
(I01
I1755
tp2486
asg49
Nsbsg50
I3
sg51
F1756.5
sbs(g23
g223
tp2487
g0
(g32
g2
Ntp2488
Rp2489
(dp2490
g36
F0.5
sg37
I1043
sg38
g0
(g39
g40
(dp2491
I00
I1043
stp2492
Rp2493
(dp2494
g37
I1043
sg45
Nsg46
(lp2495
(I00
I1043
tp2496
asg49
Nsbsg50
I3
sg51
F1044.5
sbs(g21
g365
tp2497
g0
(g32
g2
Ntp2498
Rp2499
(dp2500
g36
F0.5
sg37
I1391
sg38
g0
(g39
g40
(dp2501
I00
I1391
stp2502
Rp2503
(dp2504
g37
I1391
sg45
Nsg46
(lp2505
(I00
I1391
tp2506
asg49
Nsbsg50
I3
sg51
F1392.5
sbs(g20
g129
tp2507
g0
(g32
g2
Ntp2508
Rp2509
(dp2510
g36
F0.5
sg37
I1403
sg38
g0
(g39
g40
(dp2511
I00
I1403
stp2512
Rp2513
(dp2514
g37
I1403
sg45
Nsg46
(lp2515
(I00
I1403
tp2516
asg49
Nsbsg50
I3
sg51
F1404.5
sbs(g19
g75
tp2517
g0
(g32
g2
Ntp2518
Rp2519
(dp2520
g36
F0.5
sg37
I1640
sg38
g0
(g39
g40
(dp2521
I00
I1640
stp2522
Rp2523
(dp2524
g37
I1640
sg45
Nsg46
(lp2525
(I00
I1640
tp2526
asg49
Nsbsg50
I3
sg51
F1641.5
sbs(g8
g118
tp2527
g0
(g32
g2
Ntp2528
Rp2529
(dp2530
g36
F0.5
sg37
I5242
sg38
g0
(g39
g40
(dp2531
I00
I5242
stp2532
Rp2533
(dp2534
g37
I5242
sg45
Nsg46
(lp2535
(I00
I5242
tp2536
asg49
Nsbsg50
I3
sg51
F5243.5
sbs(g19
g406
tp2537
g0
(g32
g2
Ntp2538
Rp2539
(dp2540
g36
F0.5
sg37
I1640
sg38
g0
(g39
g40
(dp2541
I00
I1640
stp2542
Rp2543
(dp2544
g37
I1640
sg45
Nsg46
(lp2545
(I00
I1640
tp2546
asg49
Nsbsg50
I3
sg51
F1641.5
sbs(g9
g129
tp2547
g0
(g32
g2
Ntp2548
Rp2549
(dp2550
g36
F0.5
sg37
I4069
sg38
g0
(g39
g40
(dp2551
I00
I2902
sI01
I1167
stp2552
Rp2553
(dp2554
g37
I4069
sg45
Nsg46
(lp2555
(I00
I2902
tp2556
a(I01
I1167
tp2557
asg49
Nsbsg50
I3
sg51
F4070.5
sbs(g14
g140
tp2558
g0
(g32
g2
Ntp2559
Rp2560
(dp2561
g36
F0.5
sg37
I2091
sg38
g0
(g39
g40
(dp2562
I00
I2091
stp2563
Rp2564
(dp2565
g37
I2091
sg45
Nsg46
(lp2566
(I00
I2091
tp2567
asg49
Nsbsg50
I3
sg51
F2092.5
sbs(g20
g437
tp2568
g0
(g32
g2
Ntp2569
Rp2570
(dp2571
g36
F0.5
sg37
I1403
sg38
g0
(g39
g40
(dp2572
I00
I1403
stp2573
Rp2574
(dp2575
g37
I1403
sg45
Nsg46
(lp2576
(I00
I1403
tp2577
asg49
Nsbsg50
I3
sg51
F1404.5
sbs(g22
g118
tp2578
g0
(g32
g2
Ntp2579
Rp2580
(dp2581
g36
F0.5
sg37
I1053
sg38
g0
(g39
g40
(dp2582
I00
I1053
stp2583
Rp2584
(dp2585
g37
I1053
sg45
Nsg46
(lp2586
(I00
I1053
tp2587
asg49
Nsbsg50
I3
sg51
F1054.5
sbs(g9
g86
tp2588
g0
(g32
g2
Ntp2589
Rp2590
(dp2591
g36
F0.5
sg37
I4069
sg38
g0
(g39
g40
(dp2592
I00
I4069
stp2593
Rp2594
(dp2595
g37
I4069
sg45
Nsg46
(lp2596
(I00
I4069
tp2597
asg49
Nsbsg50
I3
sg51
F4070.5
sbs(g25
g365
tp2598
g0
(g32
g2
Ntp2599
Rp2600
(dp2601
g36
F0.5
sg37
I695
sg38
g0
(g39
g40
(dp2602
I00
I695
stp2603
Rp2604
(dp2605
g37
I695
sg45
Nsg46
(lp2606
(I00
I695
tp2607
asg49
Nsbsg50
I3
sg51
F696.5
sbs(g18
g223
tp2608
g0
(g32
g2
Ntp2609
Rp2610
(dp2611
g36
F0.5
sg37
I1641
sg38
g0
(g39
g40
(dp2612
I01
I1641
stp2613
Rp2614
(dp2615
g37
I1641
sg45
Nsg46
(lp2616
(I01
I1641
tp2617
asg49
Nsbsg50
I3
sg51
F1642.5
sbs(g8
g406
tp2618
g0
(g32
g2
Ntp2619
Rp2620
(dp2621
g36
F0.5
sg37
I5242
sg38
g0
(g39
g40
(dp2622
I01
I5242
stp2623
Rp2624
(dp2625
g37
I5242
sg45
Nsg46
(lp2626
(I01
I5242
tp2627
asg49
Nsbsg50
I3
sg51
F5243.5
sbs(g11
g129
tp2628
g0
(g32
g2
Ntp2629
Rp2630
(dp2631
g36
F0.5
sg37
I3164
sg38
g0
(g39
g40
(dp2632
I00
I3164
stp2633
Rp2634
(dp2635
g37
I3164
sg45
Nsg46
(lp2636
(I00
I3164
tp2637
asg49
Nsbsg50
I3
sg51
F3165.5
sbs(g11
g52
tp2638
g0
(g32
g2
Ntp2639
Rp2640
(dp2641
g36
F0.5
sg37
I3164
sg38
g0
(g39
g40
(dp2642
I00
I3164
stp2643
Rp2644
(dp2645
g37
I3164
sg45
Nsg46
(lp2646
(I00
I3164
tp2647
asg49
Nsbsg50
I3
sg51
F3165.5
sbs(g12
g118
tp2648
g0
(g32
g2
Ntp2649
Rp2650
(dp2651
g36
F0.5
sg37
I2448
sg38
g0
(g39
g40
(dp2652
I00
I2448
stp2653
Rp2654
(dp2655
g37
I2448
sg45
Nsg46
(lp2656
(I00
I2448
tp2657
asg49
Nsbsg50
I3
sg51
F2449.5
sbs(g10
g52
tp2658
g0
(g32
g2
Ntp2659
Rp2660
(dp2661
g36
F0.5
sg37
I3478
sg38
g0
(g39
g40
(dp2662
I00
I1385
sI01
I2093
stp2663
Rp2664
(dp2665
g37
I3478
sg45
Nsg46
(lp2666
(I01
I2093
tp2667
a(I00
I1385
tp2668
asg49
Nsbsg50
I3
sg51
F3479.5
sbs(g13
g52
tp2669
g0
(g32
g2
Ntp2670
Rp2671
(dp2672
g36
F0.5
sg37
I2116
sg38
g0
(g39
g40
(dp2673
I00
I2116
stp2674
Rp2675
(dp2676
g37
I2116
sg45
Nsg46
(lp2677
(I00
I2116
tp2678
asg49
Nsbsg50
I3
sg51
F2117.5
sbs(g26
g437
tp2679
g0
(g32
g2
Ntp2680
Rp2681
(dp2682
g36
F0.5
sg37
I694
sg38
g0
(g39
g40
(dp2683
I00
I694
stp2684
Rp2685
(dp2686
g37
I694
sg45
Nsg46
(lp2687
(I00
I694
tp2688
asg49
Nsbsg50
I3
sg51
F695.5
sbs(g22
g129
tp2689
g0
(g32
g2
Ntp2690
Rp2691
(dp2692
g36
F0.5
sg37
I1053
sg38
g0
(g39
g40
(dp2693
I00
I1053
stp2694
Rp2695
(dp2696
g37
I1053
sg45
Nsg46
(lp2697
(I00
I1053
tp2698
asg49
Nsbsg50
I3
sg51
F1054.5
sbs(g22
g223
tp2699
g0
(g32
g2
Ntp2700
Rp2701
(dp2702
g36
F0.5
sg37
I1053
sg38
g0
(g39
g40
(dp2703
I00
I1053
stp2704
Rp2705
(dp2706
g37
I1053
sg45
Nsg46
(lp2707
(I00
I1053
tp2708
asg49
Nsbsg50
I3
sg51
F1054.5
sbs(g27
g304
tp2709
g0
(g32
g2
Ntp2710
Rp2711
(dp2712
g36
F0.5
sg37
I693
sg38
g0
(g39
g40
(dp2713
I01
I693
stp2714
Rp2715
(dp2716
g37
I693
sg45
Nsg46
(lp2717
(I01
I693
tp2718
asg49
Nsbsg50
I3
sg51
F694.5
sbs(g20
g140
tp2719
g0
(g32
g2
Ntp2720
Rp2721
(dp2722
g36
F0.5
sg37
I1403
sg38
g0
(g39
g40
(dp2723
I00
I1403
stp2724
Rp2725
(dp2726
g37
I1403
sg45
Nsg46
(lp2727
(I00
I1403
tp2728
asg49
Nsbsg50
I3
sg51
F1404.5
sbs(g26
g75
tp2729
g0
(g32
g2
Ntp2730
Rp2731
(dp2732
g36
F0.5
sg37
I694
sg38
g0
(g39
g40
(dp2733
I00
I234
sI01
I460
stp2734
Rp2735
(dp2736
g37
I694
sg45
Nsg46
(lp2737
(I01
I460
tp2738
a(I00
I234
tp2739
asg49
Nsbsg50
I3
sg51
F695.5
sbs(g10
g129
tp2740
g0
(g32
g2
Ntp2741
Rp2742
(dp2743
g36
F0.5
sg37
I3478
sg38
g0
(g39
g40
(dp2744
I00
I3478
stp2745
Rp2746
(dp2747
g37
I3478
sg45
Nsg46
(lp2748
(I00
I3478
tp2749
asg49
Nsbsg50
I3
sg51
F3479.5
sbs(g25
g437
tp2750
g0
(g32
g2
Ntp2751
Rp2752
(dp2753
g36
F0.5
sg37
I695
sg38
g0
(g39
g40
(dp2754
I00
I695
stp2755
Rp2756
(dp2757
g37
I695
sg45
Nsg46
(lp2758
(I00
I695
tp2759
asg49
Nsbsg50
I3
sg51
F696.5
sbs(g26
g30
tp2760
g0
(g32
g2
Ntp2761
Rp2762
(dp2763
g36
F0.5
sg37
I694
sg38
g0
(g39
g40
(dp2764
I00
I694
stp2765
Rp2766
(dp2767
g37
I694
sg45
Nsg46
(lp2768
(I00
I694
tp2769
asg49
Nsbsg50
I3
sg51
F695.5
sbs(g16
g118
tp2770
g0
(g32
g2
Ntp2771
Rp2772
(dp2773
g36
F0.5
sg37
I1755
sg38
g0
(g39
g40
(dp2774
I00
I1755
stp2775
Rp2776
(dp2777
g37
I1755
sg45
Nsg46
(lp2778
(I00
I1755
tp2779
asg49
Nsbsg50
I3
sg51
F1756.5
sbs(g13
g107
tp2780
g0
(g32
g2
Ntp2781
Rp2782
(dp2783
g36
F0.5
sg37
I2116
sg38
g0
(g39
g40
(dp2784
I00
I2116
stp2785
Rp2786
(dp2787
g37
I2116
sg45
Nsg46
(lp2788
(I00
I2116
tp2789
asg49
Nsbsg50
I3
sg51
F2117.5
sbs(g11
g140
tp2790
g0
(g32
g2
Ntp2791
Rp2792
(dp2793
g36
F0.5
sg37
I3164
sg38
g0
(g39
g40
(dp2794
I00
I3164
stp2795
Rp2796
(dp2797
g37
I3164
sg45
Nsg46
(lp2798
(I00
I3164
tp2799
asg49
Nsbsg50
I3
sg51
F3165.5
sbs(g20
g52
tp2800
g0
(g32
g2
Ntp2801
Rp2802
(dp2803
g36
F0.5
sg37
I1403
sg38
g0
(g39
g40
(dp2804
I00
I1403
stp2805
Rp2806
(dp2807
g37
I1403
sg45
Nsg46
(lp2808
(I00
I1403
tp2809
asg49
Nsbsg50
I3
sg51
F1404.5
sbs(g12
g107
tp2810
g0
(g32
g2
Ntp2811
Rp2812
(dp2813
g36
F0.5
sg37
I2448
sg38
g0
(g39
g40
(dp2814
I00
I356
sI01
I2092
stp2815
Rp2816
(dp2817
g37
I2448
sg45
Nsg46
(lp2818
(I01
I2092
tp2819
a(I00
I356
tp2820
asg49
Nsbsg50
I3
sg51
F2449.5
sbs(g25
g568
tp2821
g0
(g32
g2
Ntp2822
Rp2823
(dp2824
g36
F0.5
sg37
I695
sg38
g0
(g39
g40
(dp2825
I00
I695
stp2826
Rp2827
(dp2828
g37
I695
sg45
Nsg46
(lp2829
(I00
I695
tp2830
asg49
Nsbsg50
I3
sg51
F696.5
sbs(g12
g437
tp2831
g0
(g32
g2
Ntp2832
Rp2833
(dp2834
g36
F0.5
sg37
I2448
sg38
g0
(g39
g40
(dp2835
I00
I1640
sI01
I808
stp2836
Rp2837
(dp2838
g37
I2448
sg45
Nsg46
(lp2839
(I00
I1640
tp2840
a(I01
I808
tp2841
asg49
Nsbsg50
I3
sg51
F2449.5
sbs(g13
g437
tp2842
g0
(g32
g2
Ntp2843
Rp2844
(dp2845
g36
F0.5
sg37
I2116
sg38
g0
(g39
g40
(dp2846
I00
I1409
sI01
I707
stp2847
Rp2848
(dp2849
g37
I2116
sg45
Nsg46
(lp2850
(I00
I1409
tp2851
a(I01
I707
tp2852
asg49
Nsbsg50
I3
sg51
F2117.5
sbs(g14
g437
tp2853
g0
(g32
g2
Ntp2854
Rp2855
(dp2856
g36
F0.5
sg37
I2091
sg38
g0
(g39
g40
(dp2857
I00
I2091
stp2858
Rp2859
(dp2860
g37
I2091
sg45
Nsg46
(lp2861
(I00
I2091
tp2862
asg49
Nsbsg50
I3
sg51
F2092.5
sbs(g24
g107
tp2863
g0
(g32
g2
Ntp2864
Rp2865
(dp2866
g36
F0.5
sg37
I702
sg38
g0
(g39
g40
(dp2867
I00
I702
stp2868
Rp2869
(dp2870
g37
I702
sg45
Nsg46
(lp2871
(I00
I702
tp2872
asg49
Nsbsg50
I3
sg51
F703.5
sbs(g13
g223
tp2873
g0
(g32
g2
Ntp2874
Rp2875
(dp2876
g36
F0.5
sg37
I2116
sg38
g0
(g39
g40
(dp2877
I00
I2116
stp2878
Rp2879
(dp2880
g37
I2116
sg45
Nsg46
(lp2881
(I00
I2116
tp2882
asg49
Nsbsg50
I3
sg51
F2117.5
sbs(g12
g365
tp2883
g0
(g32
g2
Ntp2884
Rp2885
(dp2886
g36
F0.5
sg37
I2448
sg38
g0
(g39
g40
(dp2887
I00
I1389
sI01
I1059
stp2888
Rp2889
(dp2890
g37
I2448
sg45
Nsg46
(lp2891
(I00
I1389
tp2892
a(I01
I1059
tp2893
asg49
Nsbsg50
I3
sg51
F2449.5
sbs(g25
g304
tp2894
g0
(g32
g2
Ntp2895
Rp2896
(dp2897
g36
F0.5
sg37
I695
sg38
g0
(g39
g40
(dp2898
I00
I695
stp2899
Rp2900
(dp2901
g37
I695
sg45
Nsg46
(lp2902
(I00
I695
tp2903
asg49
Nsbsg50
I3
sg51
F696.5
sbs(g14
g75
tp2904
g0
(g32
g2
Ntp2905
Rp2906
(dp2907
g36
F0.5
sg37
I2091
sg38
g0
(g39
g40
(dp2908
I00
I2091
stp2909
Rp2910
(dp2911
g37
I2091
sg45
Nsg46
(lp2912
(I00
I2091
tp2913
asg49
Nsbsg50
I3
sg51
F2092.5
sbs(g17
g129
tp2914
g0
(g32
g2
Ntp2915
Rp2916
(dp2917
g36
F0.5
sg37
I1753
sg38
g0
(g39
g40
(dp2918
I00
I1753
stp2919
Rp2920
(dp2921
g37
I1753
sg45
Nsg46
(lp2922
(I00
I1753
tp2923
asg49
Nsbsg50
I3
sg51
F1754.5
sbs(g13
g129
tp2924
g0
(g32
g2
Ntp2925
Rp2926
(dp2927
g36
F0.5
sg37
I2116
sg38
g0
(g39
g40
(dp2928
I00
I2116
stp2929
Rp2930
(dp2931
g37
I2116
sg45
Nsg46
(lp2932
(I00
I2116
tp2933
asg49
Nsbsg50
I3
sg51
F2117.5
sbs(g23
g118
tp2934
g0
(g32
g2
Ntp2935
Rp2936
(dp2937
g36
F0.5
sg37
I1043
sg38
g0
(g39
g40
(dp2938
I00
I1043
stp2939
Rp2940
(dp2941
g37
I1043
sg45
Nsg46
(lp2942
(I00
I1043
tp2943
asg49
Nsbsg50
I3
sg51
F1044.5
sbs(g14
g223
tp2944
g0
(g32
g2
Ntp2945
Rp2946
(dp2947
g36
F0.5
sg37
I2091
sg38
g0
(g39
g40
(dp2948
I00
I2091
stp2949
Rp2950
(dp2951
g37
I2091
sg45
Nsg46
(lp2952
(I00
I2091
tp2953
asg49
Nsbsg50
I3
sg51
F2092.5
sbs(g12
g30
tp2954
g0
(g32
g2
Ntp2955
Rp2956
(dp2957
g36
F0.5
sg37
I2448
sg38
g0
(g39
g40
(dp2958
I00
I2448
stp2959
Rp2960
(dp2961
g37
I2448
sg45
Nsg46
(lp2962
(I00
I2448
tp2963
asg49
Nsbsg50
I3
sg51
F2449.5
sbs(g9
g437
tp2964
g0
(g32
g2
Ntp2965
Rp2966
(dp2967
g36
F0.5
sg37
I4069
sg38
g0
(g39
g40
(dp2968
I00
I4069
stp2969
Rp2970
(dp2971
g37
I4069
sg45
Nsg46
(lp2972
(I00
I4069
tp2973
asg49
Nsbsg50
I3
sg51
F4070.5
sbs(g8
g86
tp2974
g0
(g32
g2
Ntp2975
Rp2976
(dp2977
g36
F0.5
sg37
I5242
sg38
g0
(g39
g40
(dp2978
I00
I5242
stp2979
Rp2980
(dp2981
g37
I5242
sg45
Nsg46
(lp2982
(I00
I5242
tp2983
asg49
Nsbsg50
I3
sg51
F5243.5
sbs(g23
g107
tp2984
g0
(g32
g2
Ntp2985
Rp2986
(dp2987
g36
F0.5
sg37
I1043
sg38
g0
(g39
g40
(dp2988
I00
I1043
stp2989
Rp2990
(dp2991
g37
I1043
sg45
Nsg46
(lp2992
(I00
I1043
tp2993
asg49
Nsbsg50
I3
sg51
F1044.5
sbs(g21
g437
tp2994
g0
(g32
g2
Ntp2995
Rp2996
(dp2997
g36
F0.5
sg37
I1391
sg38
g0
(g39
g40
(dp2998
I00
I1391
stp2999
Rp3000
(dp3001
g37
I1391
sg45
Nsg46
(lp3002
(I00
I1391
tp3003
asg49
Nsbsg50
I3
sg51
F1392.5
sbs(g9
g52
tp3004
g0
(g32
g2
Ntp3005
Rp3006
(dp3007
g36
F0.5
sg37
I4069
sg38
g0
(g39
g40
(dp3008
I00
I1624
sI01
I2445
stp3009
Rp3010
(dp3011
g37
I4069
sg45
Nsg46
(lp3012
(I01
I2445
tp3013
a(I00
I1624
tp3014
asg49
Nsbsg50
I3
sg51
F4070.5
sbs(g17
g64
tp3015
g0
(g32
g2
Ntp3016
Rp3017
(dp3018
g36
F0.5
sg37
I1753
sg38
g0
(g39
g40
(dp3019
I00
I1753
stp3020
Rp3021
(dp3022
g37
I1753
sg45
Nsg46
(lp3023
(I00
I1753
tp3024
asg49
Nsbsg50
I3
sg51
F1754.5
sbs(g26
g223
tp3025
g0
(g32
g2
Ntp3026
Rp3027
(dp3028
g36
F0.5
sg37
I694
sg38
g0
(g39
g40
(dp3029
I00
I694
stp3030
Rp3031
(dp3032
g37
I694
sg45
Nsg46
(lp3033
(I00
I694
tp3034
asg49
Nsbsg50
I3
sg51
F695.5
sbs(g19
g365
tp3035
g0
(g32
g2
Ntp3036
Rp3037
(dp3038
g36
F0.5
sg37
I1640
sg38
g0
(g39
g40
(dp3039
I00
I935
sI01
I705
stp3040
Rp3041
(dp3042
g37
I1640
sg45
Nsg46
(lp3043
(I00
I935
tp3044
a(I01
I705
tp3045
asg49
Nsbsg50
I3
sg51
F1641.5
sbs(g12
g129
tp3046
g0
(g32
g2
Ntp3047
Rp3048
(dp3049
g36
F0.5
sg37
I2448
sg38
g0
(g39
g40
(dp3050
I00
I1756
sI01
I692
stp3051
Rp3052
(dp3053
g37
I2448
sg45
Nsg46
(lp3054
(I00
I1756
tp3055
a(I01
I692
tp3056
asg49
Nsbsg50
I3
sg51
F2449.5
sbs(g12
g223
tp3057
g0
(g32
g2
Ntp3058
Rp3059
(dp3060
g36
F0.5
sg37
I2448
sg38
g0
(g39
g40
(dp3061
I00
I2448
stp3062
Rp3063
(dp3064
g37
I2448
sg45
Nsg46
(lp3065
(I00
I2448
tp3066
asg49
Nsbsg50
I3
sg51
F2449.5
sbs(g13
g406
tp3067
g0
(g32
g2
Ntp3068
Rp3069
(dp3070
g36
F0.5
sg37
I2116
sg38
g0
(g39
g40
(dp3071
I00
I2116
stp3072
Rp3073
(dp3074
g37
I2116
sg45
Nsg46
(lp3075
(I00
I2116
tp3076
asg49
Nsbsg50
I3
sg51
F2117.5
sbs(g14
g30
tp3077
g0
(g32
g2
Ntp3078
Rp3079
(dp3080
g36
F0.5
sg37
I2091
sg38
g0
(g39
g40
(dp3081
I00
I1158
sI01
I933
stp3082
Rp3083
(dp3084
g37
I2091
sg45
Nsg46
(lp3085
(I00
I1158
tp3086
a(I01
I933
tp3087
asg49
Nsbsg50
I3
sg51
F2092.5
sbs(g21
g129
tp3088
g0
(g32
g2
Ntp3089
Rp3090
(dp3091
g36
F0.5
sg37
I1391
sg38
g0
(g39
g40
(dp3092
I00
I1391
stp3093
Rp3094
(dp3095
g37
I1391
sg45
Nsg46
(lp3096
(I00
I1391
tp3097
asg49
Nsbsg50
I3
sg51
F1392.5
sbssS'_label_probdist'
p3098
g0
(g32
g2
Ntp3099
Rp3100
(dp3101
g36
F0.5
sg37
I39156
sg38
g0
(g39
g40
(dp3102
g17
I1753
sg10
I3478
sg20
I1403
sg12
I2448
sg16
I1755
sg11
I3164
sg15
I2085
sg8
I5242
sg25
I695
sg19
I1640
sg24
I702
sg22
I1053
sg14
I2091
sg27
I693
sg18
I1641
sg23
I1043
sg26
I694
sg21
I1391
sg13
I2116
sg9
I4069
stp3103
Rp3104
(dp3105
g37
I39156
sg45
Nsg46
(lp3106
(g8
I5242
tp3107
a(g9
I4069
tp3108
a(g10
I3478
tp3109
a(g11
I3164
tp3110
a(g12
I2448
tp3111
a(g13
I2116
tp3112
a(g14
I2091
tp3113
a(g15
I2085
tp3114
a(g16
I1755
tp3115
a(g17
I1753
tp3116
a(g18
I1641
tp3117
a(g19
I1640
tp3118
a(g20
I1403
tp3119
a(g21
I1391
tp3120
a(g22
I1053
tp3121
a(g23
I1043
tp3122
a(g24
I702
tp3123
a(g25
I695
tp3124
a(g26
I694
tp3125
a(g27
I693
tp3126
asg49
Nsbsg50
I20
sg51
F39166.0
sbsb.